
ftfp.o:	file format mach-o 64-bit x86-64

Disassembly of section __TEXT,__text:

0000000000000000 <_fix_is_neg>:
       0: 55                           	pushq	%rbp
       1: 48 89 e5                     	movq	%rsp, %rbp
       4: 4c 8b 5d f8                  	movq	-8(%rbp), %r11
       8: 41 83 e3 00                  	andl	$0, %r11d
       c: 41 89 fb                     	movl	%edi, %r11d
       f: 49 f7 d3                     	notq	%r11
      12: 4c 89 5d f8                  	movq	%r11, -8(%rbp)
      16: 48 89 7d f8                  	movq	%rdi, -8(%rbp)
      1a: 48 b8 00 00 00 00 00 00 00 80	movabsq	$-9223372036854775808, %rax ## imm = 0x8000000000000000
      24: 48 23 45 f8                  	andq	-8(%rbp), %rax
      28: 48 b9 00 00 00 00 00 00 00 80	movabsq	$-9223372036854775808, %rcx ## imm = 0x8000000000000000
      32: 48 39 c8                     	cmpq	%rcx, %rax
      35: 0f 94 c0                     	sete	%al
      38: 24 01                        	andb	$1, %al
      3a: 0f b6 c0                     	movzbl	%al, %eax
      3d: 0f be c0                     	movsbl	%al, %eax
      40: 5d                           	popq	%rbp
      41: c3                           	retq
      42: 66 2e 0f 1f 84 00 00 00 00 00	nopw	%cs:(%rax,%rax)
      4c: 0f 1f 40 00                  	nopl	(%rax)

0000000000000050 <_fix_is_nan>:
      50: 55                           	pushq	%rbp
      51: 48 89 e5                     	movq	%rsp, %rbp
      54: 4c 8b 5d f8                  	movq	-8(%rbp), %r11
      58: 41 83 e3 00                  	andl	$0, %r11d
      5c: 41 89 fb                     	movl	%edi, %r11d
      5f: 49 f7 d3                     	notq	%r11
      62: 4c 89 5d f8                  	movq	%r11, -8(%rbp)
      66: 48 89 7d f8                  	movq	%rdi, -8(%rbp)
      6a: 48 8b 45 f8                  	movq	-8(%rbp), %rax
      6e: 48 83 e0 03                  	andq	$3, %rax
      72: 48 83 f8 01                  	cmpq	$1, %rax
      76: 0f 94 c0                     	sete	%al
      79: 24 01                        	andb	$1, %al
      7b: 0f b6 c0                     	movzbl	%al, %eax
      7e: 0f be c0                     	movsbl	%al, %eax
      81: 5d                           	popq	%rbp
      82: c3                           	retq
      83: 66 2e 0f 1f 84 00 00 00 00 00	nopw	%cs:(%rax,%rax)
      8d: 0f 1f 00                     	nopl	(%rax)

0000000000000090 <_fix_is_inf_pos>:
      90: 55                           	pushq	%rbp
      91: 48 89 e5                     	movq	%rsp, %rbp
      94: 4c 8b 5d f8                  	movq	-8(%rbp), %r11
      98: 41 83 e3 00                  	andl	$0, %r11d
      9c: 41 89 fb                     	movl	%edi, %r11d
      9f: 49 f7 d3                     	notq	%r11
      a2: 4c 89 5d f8                  	movq	%r11, -8(%rbp)
      a6: 48 89 7d f8                  	movq	%rdi, -8(%rbp)
      aa: 48 8b 45 f8                  	movq	-8(%rbp), %rax
      ae: 48 83 e0 03                  	andq	$3, %rax
      b2: 48 83 f8 02                  	cmpq	$2, %rax
      b6: 0f 94 c0                     	sete	%al
      b9: 24 01                        	andb	$1, %al
      bb: 0f b6 c0                     	movzbl	%al, %eax
      be: 0f be c0                     	movsbl	%al, %eax
      c1: 5d                           	popq	%rbp
      c2: c3                           	retq
      c3: 66 2e 0f 1f 84 00 00 00 00 00	nopw	%cs:(%rax,%rax)
      cd: 0f 1f 00                     	nopl	(%rax)

00000000000000d0 <_fix_is_inf_neg>:
      d0: 55                           	pushq	%rbp
      d1: 48 89 e5                     	movq	%rsp, %rbp
      d4: 4c 8b 5d f8                  	movq	-8(%rbp), %r11
      d8: 41 83 e3 00                  	andl	$0, %r11d
      dc: 41 89 fb                     	movl	%edi, %r11d
      df: 49 f7 d3                     	notq	%r11
      e2: 4c 89 5d f8                  	movq	%r11, -8(%rbp)
      e6: 48 89 7d f8                  	movq	%rdi, -8(%rbp)
      ea: 48 8b 45 f8                  	movq	-8(%rbp), %rax
      ee: 48 83 e0 03                  	andq	$3, %rax
      f2: 48 83 f8 03                  	cmpq	$3, %rax
      f6: 0f 94 c0                     	sete	%al
      f9: 24 01                        	andb	$1, %al
      fb: 0f b6 c0                     	movzbl	%al, %eax
      fe: 0f be c0                     	movsbl	%al, %eax
     101: 5d                           	popq	%rbp
     102: c3                           	retq
     103: 66 2e 0f 1f 84 00 00 00 00 00	nopw	%cs:(%rax,%rax)
     10d: 0f 1f 00                     	nopl	(%rax)

0000000000000110 <_fix_eq>:
     110: 55                           	pushq	%rbp
     111: 48 89 e5                     	movq	%rsp, %rbp
     114: 4c 8b 5d f8                  	movq	-8(%rbp), %r11
     118: 41 83 e3 00                  	andl	$0, %r11d
     11c: 41 89 fb                     	movl	%edi, %r11d
     11f: 49 f7 d3                     	notq	%r11
     122: 4c 89 5d f8                  	movq	%r11, -8(%rbp)
     126: 48 89 7d f8                  	movq	%rdi, -8(%rbp)
     12a: 4c 8b 5d f0                  	movq	-16(%rbp), %r11
     12e: 41 83 e3 00                  	andl	$0, %r11d
     132: 41 89 f3                     	movl	%esi, %r11d
     135: 49 f7 d3                     	notq	%r11
     138: 4c 89 5d f0                  	movq	%r11, -16(%rbp)
     13c: 48 89 75 f0                  	movq	%rsi, -16(%rbp)
     140: 48 8b 45 f8                  	movq	-8(%rbp), %rax
     144: 48 83 e0 03                  	andq	$3, %rax
     148: 48 83 f8 01                  	cmpq	$1, %rax
     14c: 0f 94 c0                     	sete	%al
     14f: 24 01                        	andb	$1, %al
     151: 0f b6 c0                     	movzbl	%al, %eax
     154: 48 8b 4d f0                  	movq	-16(%rbp), %rcx
     158: 48 83 e1 03                  	andq	$3, %rcx
     15c: 48 83 f9 01                  	cmpq	$1, %rcx
     160: 0f 94 c1                     	sete	%cl
     163: 80 e1 01                     	andb	$1, %cl
     166: 0f b6 c9                     	movzbl	%cl, %ecx
     169: 09 c8                        	orl	%ecx, %eax
     16b: 83 f8 00                     	cmpl	$0, %eax
     16e: 0f 95 c0                     	setne	%al
     171: 34 ff                        	xorb	$-1, %al
     173: 24 01                        	andb	$1, %al
     175: 0f b6 c0                     	movzbl	%al, %eax
     178: 48 8b 4d f8                  	movq	-8(%rbp), %rcx
     17c: 48 83 e1 03                  	andq	$3, %rcx
     180: 48 83 f9 02                  	cmpq	$2, %rcx
     184: 0f 94 c1                     	sete	%cl
     187: 80 e1 01                     	andb	$1, %cl
     18a: 0f b6 c9                     	movzbl	%cl, %ecx
     18d: 48 8b 55 f0                  	movq	-16(%rbp), %rdx
     191: 48 83 e2 03                  	andq	$3, %rdx
     195: 48 83 fa 02                  	cmpq	$2, %rdx
     199: 0f 94 c2                     	sete	%dl
     19c: 80 e2 01                     	andb	$1, %dl
     19f: 0f b6 d2                     	movzbl	%dl, %edx
     1a2: 21 d1                        	andl	%edx, %ecx
     1a4: 48 8b 55 f8                  	movq	-8(%rbp), %rdx
     1a8: 48 83 e2 03                  	andq	$3, %rdx
     1ac: 48 83 fa 03                  	cmpq	$3, %rdx
     1b0: 0f 94 c2                     	sete	%dl
     1b3: 80 e2 01                     	andb	$1, %dl
     1b6: 0f b6 d2                     	movzbl	%dl, %edx
     1b9: 48 8b 75 f0                  	movq	-16(%rbp), %rsi
     1bd: 48 83 e6 03                  	andq	$3, %rsi
     1c1: 48 83 fe 03                  	cmpq	$3, %rsi
     1c5: 40 0f 94 c6                  	sete	%sil
     1c9: 40 80 e6 01                  	andb	$1, %sil
     1cd: 40 0f b6 f6                  	movzbl	%sil, %esi
     1d1: 21 f2                        	andl	%esi, %edx
     1d3: 09 d1                        	orl	%edx, %ecx
     1d5: 48 8b 55 f8                  	movq	-8(%rbp), %rdx
     1d9: 48 3b 55 f0                  	cmpq	-16(%rbp), %rdx
     1dd: 0f 94 c2                     	sete	%dl
     1e0: 80 e2 01                     	andb	$1, %dl
     1e3: 0f b6 d2                     	movzbl	%dl, %edx
     1e6: 09 d1                        	orl	%edx, %ecx
     1e8: 21 c8                        	andl	%ecx, %eax
     1ea: 0f be c0                     	movsbl	%al, %eax
     1ed: 5d                           	popq	%rbp
     1ee: c3                           	retq
     1ef: 90                           	nop

00000000000001f0 <_fix_eq_nan>:
     1f0: 55                           	pushq	%rbp
     1f1: 48 89 e5                     	movq	%rsp, %rbp
     1f4: 4c 8b 5d f8                  	movq	-8(%rbp), %r11
     1f8: 41 83 e3 00                  	andl	$0, %r11d
     1fc: 41 89 fb                     	movl	%edi, %r11d
     1ff: 49 f7 d3                     	notq	%r11
     202: 4c 89 5d f8                  	movq	%r11, -8(%rbp)
     206: 48 89 7d f8                  	movq	%rdi, -8(%rbp)
     20a: 4c 8b 5d f0                  	movq	-16(%rbp), %r11
     20e: 41 83 e3 00                  	andl	$0, %r11d
     212: 41 89 f3                     	movl	%esi, %r11d
     215: 49 f7 d3                     	notq	%r11
     218: 4c 89 5d f0                  	movq	%r11, -16(%rbp)
     21c: 48 89 75 f0                  	movq	%rsi, -16(%rbp)
     220: 48 8b 45 f8                  	movq	-8(%rbp), %rax
     224: 48 83 e0 03                  	andq	$3, %rax
     228: 48 83 f8 01                  	cmpq	$1, %rax
     22c: 0f 94 c0                     	sete	%al
     22f: 24 01                        	andb	$1, %al
     231: 0f b6 c0                     	movzbl	%al, %eax
     234: 48 8b 4d f0                  	movq	-16(%rbp), %rcx
     238: 48 83 e1 03                  	andq	$3, %rcx
     23c: 48 83 f9 01                  	cmpq	$1, %rcx
     240: 0f 94 c1                     	sete	%cl
     243: 80 e1 01                     	andb	$1, %cl
     246: 0f b6 c9                     	movzbl	%cl, %ecx
     249: 21 c8                        	andl	%ecx, %eax
     24b: 48 8b 4d f8                  	movq	-8(%rbp), %rcx
     24f: 48 83 e1 03                  	andq	$3, %rcx
     253: 48 83 f9 02                  	cmpq	$2, %rcx
     257: 0f 94 c1                     	sete	%cl
     25a: 80 e1 01                     	andb	$1, %cl
     25d: 0f b6 c9                     	movzbl	%cl, %ecx
     260: 48 8b 55 f0                  	movq	-16(%rbp), %rdx
     264: 48 83 e2 03                  	andq	$3, %rdx
     268: 48 83 fa 02                  	cmpq	$2, %rdx
     26c: 0f 94 c2                     	sete	%dl
     26f: 80 e2 01                     	andb	$1, %dl
     272: 0f b6 d2                     	movzbl	%dl, %edx
     275: 21 d1                        	andl	%edx, %ecx
     277: 09 c8                        	orl	%ecx, %eax
     279: 48 8b 4d f8                  	movq	-8(%rbp), %rcx
     27d: 48 83 e1 03                  	andq	$3, %rcx
     281: 48 83 f9 03                  	cmpq	$3, %rcx
     285: 0f 94 c1                     	sete	%cl
     288: 80 e1 01                     	andb	$1, %cl
     28b: 0f b6 c9                     	movzbl	%cl, %ecx
     28e: 48 8b 55 f0                  	movq	-16(%rbp), %rdx
     292: 48 83 e2 03                  	andq	$3, %rdx
     296: 48 83 fa 03                  	cmpq	$3, %rdx
     29a: 0f 94 c2                     	sete	%dl
     29d: 80 e2 01                     	andb	$1, %dl
     2a0: 0f b6 d2                     	movzbl	%dl, %edx
     2a3: 21 d1                        	andl	%edx, %ecx
     2a5: 09 c8                        	orl	%ecx, %eax
     2a7: 48 8b 4d f8                  	movq	-8(%rbp), %rcx
     2ab: 48 3b 4d f0                  	cmpq	-16(%rbp), %rcx
     2af: 0f 94 c1                     	sete	%cl
     2b2: 80 e1 01                     	andb	$1, %cl
     2b5: 0f b6 c9                     	movzbl	%cl, %ecx
     2b8: 09 c8                        	orl	%ecx, %eax
     2ba: 0f be c0                     	movsbl	%al, %eax
     2bd: 5d                           	popq	%rbp
     2be: c3                           	retq
     2bf: 90                           	nop

00000000000002c0 <_fix_ne>:
     2c0: 55                           	pushq	%rbp
     2c1: 48 89 e5                     	movq	%rsp, %rbp
     2c4: 4c 8b 5d f8                  	movq	-8(%rbp), %r11
     2c8: 41 83 e3 00                  	andl	$0, %r11d
     2cc: 41 89 fb                     	movl	%edi, %r11d
     2cf: 49 f7 d3                     	notq	%r11
     2d2: 4c 89 5d f8                  	movq	%r11, -8(%rbp)
     2d6: 48 89 7d f8                  	movq	%rdi, -8(%rbp)
     2da: 4c 8b 5d f0                  	movq	-16(%rbp), %r11
     2de: 41 83 e3 00                  	andl	$0, %r11d
     2e2: 41 89 f3                     	movl	%esi, %r11d
     2e5: 49 f7 d3                     	notq	%r11
     2e8: 4c 89 5d f0                  	movq	%r11, -16(%rbp)
     2ec: 48 89 75 f0                  	movq	%rsi, -16(%rbp)
     2f0: 48 8b 45 f8                  	movq	-8(%rbp), %rax
     2f4: 48 83 e0 03                  	andq	$3, %rax
     2f8: 48 83 f8 01                  	cmpq	$1, %rax
     2fc: 0f 94 c0                     	sete	%al
     2ff: 24 01                        	andb	$1, %al
     301: 0f b6 c0                     	movzbl	%al, %eax
     304: 48 8b 4d f0                  	movq	-16(%rbp), %rcx
     308: 48 83 e1 03                  	andq	$3, %rcx
     30c: 48 83 f9 01                  	cmpq	$1, %rcx
     310: 0f 94 c1                     	sete	%cl
     313: 80 e1 01                     	andb	$1, %cl
     316: 0f b6 c9                     	movzbl	%cl, %ecx
     319: 09 c8                        	orl	%ecx, %eax
     31b: 83 f8 00                     	cmpl	$0, %eax
     31e: 0f 95 c0                     	setne	%al
     321: 34 ff                        	xorb	$-1, %al
     323: 24 01                        	andb	$1, %al
     325: 0f b6 c0                     	movzbl	%al, %eax
     328: 48 8b 4d f8                  	movq	-8(%rbp), %rcx
     32c: 48 83 e1 03                  	andq	$3, %rcx
     330: 48 83 f9 02                  	cmpq	$2, %rcx
     334: 0f 94 c1                     	sete	%cl
     337: 80 e1 01                     	andb	$1, %cl
     33a: 0f b6 c9                     	movzbl	%cl, %ecx
     33d: 48 8b 55 f0                  	movq	-16(%rbp), %rdx
     341: 48 83 e2 03                  	andq	$3, %rdx
     345: 48 83 fa 02                  	cmpq	$2, %rdx
     349: 0f 94 c2                     	sete	%dl
     34c: 80 e2 01                     	andb	$1, %dl
     34f: 0f b6 d2                     	movzbl	%dl, %edx
     352: 21 d1                        	andl	%edx, %ecx
     354: 48 8b 55 f8                  	movq	-8(%rbp), %rdx
     358: 48 83 e2 03                  	andq	$3, %rdx
     35c: 48 83 fa 03                  	cmpq	$3, %rdx
     360: 0f 94 c2                     	sete	%dl
     363: 80 e2 01                     	andb	$1, %dl
     366: 0f b6 d2                     	movzbl	%dl, %edx
     369: 48 8b 75 f0                  	movq	-16(%rbp), %rsi
     36d: 48 83 e6 03                  	andq	$3, %rsi
     371: 48 83 fe 03                  	cmpq	$3, %rsi
     375: 40 0f 94 c6                  	sete	%sil
     379: 40 80 e6 01                  	andb	$1, %sil
     37d: 40 0f b6 f6                  	movzbl	%sil, %esi
     381: 21 f2                        	andl	%esi, %edx
     383: 09 d1                        	orl	%edx, %ecx
     385: 48 8b 55 f8                  	movq	-8(%rbp), %rdx
     389: 48 3b 55 f0                  	cmpq	-16(%rbp), %rdx
     38d: 0f 94 c2                     	sete	%dl
     390: 80 e2 01                     	andb	$1, %dl
     393: 0f b6 d2                     	movzbl	%dl, %edx
     396: 09 d1                        	orl	%edx, %ecx
     398: 21 c8                        	andl	%ecx, %eax
     39a: 83 f8 00                     	cmpl	$0, %eax
     39d: 0f 95 c0                     	setne	%al
     3a0: 34 ff                        	xorb	$-1, %al
     3a2: 24 01                        	andb	$1, %al
     3a4: 0f b6 c0                     	movzbl	%al, %eax
     3a7: 0f be c0                     	movsbl	%al, %eax
     3aa: 5d                           	popq	%rbp
     3ab: c3                           	retq
     3ac: 0f 1f 40 00                  	nopl	(%rax)

00000000000003b0 <_fix_cmp>:
     3b0: 55                           	pushq	%rbp
     3b1: 48 89 e5                     	movq	%rsp, %rbp
     3b4: 48 83 ec 20                  	subq	$32, %rsp
     3b8: 4c 8b 5d f8                  	movq	-8(%rbp), %r11
     3bc: 41 83 e3 00                  	andl	$0, %r11d
     3c0: 41 89 fb                     	movl	%edi, %r11d
     3c3: 49 f7 d3                     	notq	%r11
     3c6: 4c 89 5d f8                  	movq	%r11, -8(%rbp)
     3ca: 48 89 7d f8                  	movq	%rdi, -8(%rbp)
     3ce: 4c 8b 5d f0                  	movq	-16(%rbp), %r11
     3d2: 41 83 e3 00                  	andl	$0, %r11d
     3d6: 41 89 f3                     	movl	%esi, %r11d
     3d9: 49 f7 d3                     	notq	%r11
     3dc: 4c 89 5d f0                  	movq	%r11, -16(%rbp)
     3e0: 48 89 75 f0                  	movq	%rsi, -16(%rbp)
     3e4: 48 8b 45 f8                  	movq	-8(%rbp), %rax
     3e8: 48 83 e0 03                  	andq	$3, %rax
     3ec: 48 83 f8 01                  	cmpq	$1, %rax
     3f0: 0f 94 c0                     	sete	%al
     3f3: 24 01                        	andb	$1, %al
     3f5: 0f b6 c0                     	movzbl	%al, %eax
     3f8: 48 8b 4d f0                  	movq	-16(%rbp), %rcx
     3fc: 48 83 e1 03                  	andq	$3, %rcx
     400: 48 83 f9 01                  	cmpq	$1, %rcx
     404: 0f 94 c1                     	sete	%cl
     407: 80 e1 01                     	andb	$1, %cl
     40a: 0f b6 c9                     	movzbl	%cl, %ecx
     40d: 09 c8                        	orl	%ecx, %eax
     40f: 83 f8 00                     	cmpl	$0, %eax
     412: 0f 95 c0                     	setne	%al
     415: 34 ff                        	xorb	$-1, %al
     417: 34 ff                        	xorb	$-1, %al
     419: 24 01                        	andb	$1, %al
     41b: 0f b6 c0                     	movzbl	%al, %eax
     41e: 89 45 ec                     	movl	%eax, -20(%rbp)
     421: 48 b8 00 00 00 00 00 00 00 80	movabsq	$-9223372036854775808, %rax ## imm = 0x8000000000000000
     42b: 48 23 45 f8                  	andq	-8(%rbp), %rax
     42f: 48 b9 00 00 00 00 00 00 00 80	movabsq	$-9223372036854775808, %rcx ## imm = 0x8000000000000000
     439: 48 39 c8                     	cmpq	%rcx, %rax
     43c: 0f 94 c0                     	sete	%al
     43f: 34 ff                        	xorb	$-1, %al
     441: 24 01                        	andb	$1, %al
     443: 0f b6 c0                     	movzbl	%al, %eax
     446: 89 45 e8                     	movl	%eax, -24(%rbp)
     449: 48 b8 00 00 00 00 00 00 00 80	movabsq	$-9223372036854775808, %rax ## imm = 0x8000000000000000
     453: 48 23 45 f0                  	andq	-16(%rbp), %rax
     457: 48 b9 00 00 00 00 00 00 00 80	movabsq	$-9223372036854775808, %rcx ## imm = 0x8000000000000000
     461: 48 39 c8                     	cmpq	%rcx, %rax
     464: 0f 94 c0                     	sete	%al
     467: 34 ff                        	xorb	$-1, %al
     469: 24 01                        	andb	$1, %al
     46b: 0f b6 c0                     	movzbl	%al, %eax
     46e: 89 45 e4                     	movl	%eax, -28(%rbp)
     471: 48 8b 45 f8                  	movq	-8(%rbp), %rax
     475: 48 83 e0 03                  	andq	$3, %rax
     479: 48 83 f8 02                  	cmpq	$2, %rax
     47d: 0f 94 c0                     	sete	%al
     480: 24 01                        	andb	$1, %al
     482: 0f b6 c0                     	movzbl	%al, %eax
     485: 48 8b 4d f0                  	movq	-16(%rbp), %rcx
     489: 48 83 e1 03                  	andq	$3, %rcx
     48d: 48 83 f9 02                  	cmpq	$2, %rcx
     491: 0f 94 c1                     	sete	%cl
     494: 80 f1 ff                     	xorb	$-1, %cl
     497: 80 e1 01                     	andb	$1, %cl
     49a: 0f b6 c9                     	movzbl	%cl, %ecx
     49d: 21 c8                        	andl	%ecx, %eax
     49f: 48 8b 4d f8                  	movq	-8(%rbp), %rcx
     4a3: 48 83 e1 03                  	andq	$3, %rcx
     4a7: 48 83 f9 03                  	cmpq	$3, %rcx
     4ab: 0f 94 c1                     	sete	%cl
     4ae: 80 f1 ff                     	xorb	$-1, %cl
     4b1: 80 e1 01                     	andb	$1, %cl
     4b4: 0f b6 c9                     	movzbl	%cl, %ecx
     4b7: 48 8b 55 f0                  	movq	-16(%rbp), %rdx
     4bb: 48 83 e2 03                  	andq	$3, %rdx
     4bf: 48 83 fa 03                  	cmpq	$3, %rdx
     4c3: 0f 94 c2                     	sete	%dl
     4c6: 80 e2 01                     	andb	$1, %dl
     4c9: 0f b6 d2                     	movzbl	%dl, %edx
     4cc: 21 d1                        	andl	%edx, %ecx
     4ce: 09 c8                        	orl	%ecx, %eax
     4d0: 89 45 e0                     	movl	%eax, -32(%rbp)
     4d3: 48 8b 45 f8                  	movq	-8(%rbp), %rax
     4d7: 48 83 e0 03                  	andq	$3, %rax
     4db: 48 83 f8 02                  	cmpq	$2, %rax
     4df: 0f 94 c0                     	sete	%al
     4e2: 34 ff                        	xorb	$-1, %al
     4e4: 24 01                        	andb	$1, %al
     4e6: 0f b6 c0                     	movzbl	%al, %eax
     4e9: 48 8b 4d f0                  	movq	-16(%rbp), %rcx
     4ed: 48 83 e1 03                  	andq	$3, %rcx
     4f1: 48 83 f9 02                  	cmpq	$2, %rcx
     4f5: 0f 94 c1                     	sete	%cl
     4f8: 80 e1 01                     	andb	$1, %cl
     4fb: 0f b6 c9                     	movzbl	%cl, %ecx
     4fe: 21 c8                        	andl	%ecx, %eax
     500: 48 8b 4d f8                  	movq	-8(%rbp), %rcx
     504: 48 83 e1 03                  	andq	$3, %rcx
     508: 48 83 f9 03                  	cmpq	$3, %rcx
     50c: 0f 94 c1                     	sete	%cl
     50f: 80 e1 01                     	andb	$1, %cl
     512: 0f b6 c9                     	movzbl	%cl, %ecx
     515: 48 8b 55 f0                  	movq	-16(%rbp), %rdx
     519: 48 83 e2 03                  	andq	$3, %rdx
     51d: 48 83 fa 03                  	cmpq	$3, %rdx
     521: 0f 94 c2                     	sete	%dl
     524: 80 f2 ff                     	xorb	$-1, %dl
     527: 80 e2 01                     	andb	$1, %dl
     52a: 0f b6 d2                     	movzbl	%dl, %edx
     52d: 21 d1                        	andl	%edx, %ecx
     52f: 09 c8                        	orl	%ecx, %eax
     531: 89 45 dc                     	movl	%eax, -36(%rbp)
     534: 83 7d dc 00                  	cmpl	$0, -36(%rbp)
     538: 0f 95 c0                     	setne	%al
     53b: 34 ff                        	xorb	$-1, %al
     53d: 24 01                        	andb	$1, %al
     53f: 0f b6 c0                     	movzbl	%al, %eax
     542: 8b 4d e8                     	movl	-24(%rbp), %ecx
     545: 83 7d e4 00                  	cmpl	$0, -28(%rbp)
     549: 0f 95 c2                     	setne	%dl
     54c: 80 f2 ff                     	xorb	$-1, %dl
     54f: 80 e2 01                     	andb	$1, %dl
     552: 0f b6 d2                     	movzbl	%dl, %edx
     555: 21 d1                        	andl	%edx, %ecx
     557: 21 c8                        	andl	%ecx, %eax
     559: 0b 45 e0                     	orl	-32(%rbp), %eax
     55c: 89 45 e0                     	movl	%eax, -32(%rbp)
     55f: 83 7d e0 00                  	cmpl	$0, -32(%rbp)
     563: 0f 95 c0                     	setne	%al
     566: 34 ff                        	xorb	$-1, %al
     568: 24 01                        	andb	$1, %al
     56a: 0f b6 c0                     	movzbl	%al, %eax
     56d: 83 7d e8 00                  	cmpl	$0, -24(%rbp)
     571: 0f 95 c1                     	setne	%cl
     574: 80 f1 ff                     	xorb	$-1, %cl
     577: 80 e1 01                     	andb	$1, %cl
     57a: 0f b6 c9                     	movzbl	%cl, %ecx
     57d: 23 4d e4                     	andl	-28(%rbp), %ecx
     580: 21 c8                        	andl	%ecx, %eax
     582: 0b 45 dc                     	orl	-36(%rbp), %eax
     585: 89 45 dc                     	movl	%eax, -36(%rbp)
     588: 48 8b 45 f8                  	movq	-8(%rbp), %rax
     58c: 48 3b 45 f0                  	cmpq	-16(%rbp), %rax
     590: 0f 97 c0                     	seta	%al
     593: 24 01                        	andb	$1, %al
     595: 0f b6 c0                     	movzbl	%al, %eax
     598: 89 45 d8                     	movl	%eax, -40(%rbp)
     59b: 48 8b 45 f8                  	movq	-8(%rbp), %rax
     59f: 48 3b 45 f0                  	cmpq	-16(%rbp), %rax
     5a3: 0f 92 c0                     	setb	%al
     5a6: 24 01                        	andb	$1, %al
     5a8: 0f b6 c0                     	movzbl	%al, %eax
     5ab: 89 45 d4                     	movl	%eax, -44(%rbp)
     5ae: 48 c7 45 c8 01 00 00 00      	movq	$1, -56(%rbp)
     5b6: 83 7d ec 00                  	cmpl	$0, -20(%rbp)
     5ba: 0f 95 c0                     	setne	%al
     5bd: 34 ff                        	xorb	$-1, %al
     5bf: 34 ff                        	xorb	$-1, %al
     5c1: 24 01                        	andb	$1, %al
     5c3: 0f b6 c0                     	movzbl	%al, %eax
     5c6: 48 98                        	cltq
     5c8: 48 33 45 c8                  	xorq	-56(%rbp), %rax
     5cc: 48 2b 45 c8                  	subq	-56(%rbp), %rax
     5d0: 4c 8b 5d c0                  	movq	-64(%rbp), %r11
     5d4: 41 83 e3 00                  	andl	$0, %r11d
     5d8: 41 89 c3                     	movl	%eax, %r11d
     5db: 49 f7 d3                     	notq	%r11
     5de: 4c 89 5d c0                  	movq	%r11, -64(%rbp)
     5e2: 48 89 45 c0                  	movq	%rax, -64(%rbp)
     5e6: 48 8b 45 c0                  	movq	-64(%rbp), %rax
     5ea: 48 83 e0 01                  	andq	$1, %rax
     5ee: 48 c7 45 b8 01 00 00 00      	movq	$1, -72(%rbp)
     5f6: 83 7d ec 00                  	cmpl	$0, -20(%rbp)
     5fa: 0f 95 c1                     	setne	%cl
     5fd: 80 f1 ff                     	xorb	$-1, %cl
     600: 80 f1 ff                     	xorb	$-1, %cl
     603: 80 f1 ff                     	xorb	$-1, %cl
     606: 80 e1 01                     	andb	$1, %cl
     609: 0f b6 c9                     	movzbl	%cl, %ecx
     60c: 48 63 c9                     	movslq	%ecx, %rcx
     60f: 48 33 4d b8                  	xorq	-72(%rbp), %rcx
     613: 48 2b 4d b8                  	subq	-72(%rbp), %rcx
     617: 4c 8b 5d b0                  	movq	-80(%rbp), %r11
     61b: 41 83 e3 00                  	andl	$0, %r11d
     61f: 41 89 cb                     	movl	%ecx, %r11d
     622: 49 f7 d3                     	notq	%r11
     625: 4c 89 5d b0                  	movq	%r11, -80(%rbp)
     629: 48 89 4d b0                  	movq	%rcx, -80(%rbp)
     62d: 48 8b 4d b0                  	movq	-80(%rbp), %rcx
     631: 48 c7 45 a8 01 00 00 00      	movq	$1, -88(%rbp)
     639: 83 7d e0 00                  	cmpl	$0, -32(%rbp)
     63d: 0f 95 c2                     	setne	%dl
     640: 80 f2 ff                     	xorb	$-1, %dl
     643: 80 f2 ff                     	xorb	$-1, %dl
     646: 80 e2 01                     	andb	$1, %dl
     649: 0f b6 d2                     	movzbl	%dl, %edx
     64c: 48 63 d2                     	movslq	%edx, %rdx
     64f: 48 33 55 a8                  	xorq	-88(%rbp), %rdx
     653: 48 2b 55 a8                  	subq	-88(%rbp), %rdx
     657: 4c 8b 5d a0                  	movq	-96(%rbp), %r11
     65b: 41 83 e3 00                  	andl	$0, %r11d
     65f: 41 89 d3                     	movl	%edx, %r11d
     662: 49 f7 d3                     	notq	%r11
     665: 4c 89 5d a0                  	movq	%r11, -96(%rbp)
     669: 48 89 55 a0                  	movq	%rdx, -96(%rbp)
     66d: 48 8b 55 a0                  	movq	-96(%rbp), %rdx
     671: 48 83 e2 01                  	andq	$1, %rdx
     675: 48 c7 45 98 01 00 00 00      	movq	$1, -104(%rbp)
     67d: 83 7d dc 00                  	cmpl	$0, -36(%rbp)
     681: 40 0f 95 c6                  	setne	%sil
     685: 40 80 f6 ff                  	xorb	$-1, %sil
     689: 40 80 f6 ff                  	xorb	$-1, %sil
     68d: 40 80 e6 01                  	andb	$1, %sil
     691: 40 0f b6 f6                  	movzbl	%sil, %esi
     695: 48 63 f6                     	movslq	%esi, %rsi
     698: 48 33 75 98                  	xorq	-104(%rbp), %rsi
     69c: 48 2b 75 98                  	subq	-104(%rbp), %rsi
     6a0: 4c 8b 5d 90                  	movq	-112(%rbp), %r11
     6a4: 41 83 e3 00                  	andl	$0, %r11d
     6a8: 41 89 f3                     	movl	%esi, %r11d
     6ab: 49 f7 d3                     	notq	%r11
     6ae: 4c 89 5d 90                  	movq	%r11, -112(%rbp)
     6b2: 48 89 75 90                  	movq	%rsi, -112(%rbp)
     6b6: 48 8b 75 90                  	movq	-112(%rbp), %rsi
     6ba: 48 83 e6 ff                  	andq	$-1, %rsi
     6be: 48 09 f2                     	orq	%rsi, %rdx
     6c1: 48 c7 45 88 01 00 00 00      	movq	$1, -120(%rbp)
     6c9: 8b 75 e0                     	movl	-32(%rbp), %esi
     6cc: 0b 75 dc                     	orl	-36(%rbp), %esi
     6cf: 83 fe 00                     	cmpl	$0, %esi
     6d2: 40 0f 95 c6                  	setne	%sil
     6d6: 40 80 f6 ff                  	xorb	$-1, %sil
     6da: 40 80 f6 ff                  	xorb	$-1, %sil
     6de: 40 80 f6 ff                  	xorb	$-1, %sil
     6e2: 40 80 e6 01                  	andb	$1, %sil
     6e6: 40 0f b6 f6                  	movzbl	%sil, %esi
     6ea: 48 63 f6                     	movslq	%esi, %rsi
     6ed: 48 33 75 88                  	xorq	-120(%rbp), %rsi
     6f1: 48 2b 75 88                  	subq	-120(%rbp), %rsi
     6f5: 4c 8b 5d 80                  	movq	-128(%rbp), %r11
     6f9: 41 83 e3 00                  	andl	$0, %r11d
     6fd: 41 89 f3                     	movl	%esi, %r11d
     700: 49 f7 d3                     	notq	%r11
     703: 4c 89 5d 80                  	movq	%r11, -128(%rbp)
     707: 48 89 75 80                  	movq	%rsi, -128(%rbp)
     70b: 48 8b 75 80                  	movq	-128(%rbp), %rsi
     70f: 48 c7 85 78 ff ff ff 01 00 00 00     	movq	$1, -136(%rbp)
     71a: 83 7d d8 00                  	cmpl	$0, -40(%rbp)
     71e: 40 0f 95 c7                  	setne	%dil
     722: 40 80 f7 ff                  	xorb	$-1, %dil
     726: 40 80 f7 ff                  	xorb	$-1, %dil
     72a: 40 80 e7 01                  	andb	$1, %dil
     72e: 40 0f b6 ff                  	movzbl	%dil, %edi
     732: 48 63 ff                     	movslq	%edi, %rdi
     735: 48 33 bd 78 ff ff ff         	xorq	-136(%rbp), %rdi
     73c: 48 2b bd 78 ff ff ff         	subq	-136(%rbp), %rdi
     743: 4c 8b 9d 70 ff ff ff         	movq	-144(%rbp), %r11
     74a: 41 83 e3 00                  	andl	$0, %r11d
     74e: 41 89 fb                     	movl	%edi, %r11d
     751: 49 f7 d3                     	notq	%r11
     754: 4c 89 9d 70 ff ff ff         	movq	%r11, -144(%rbp)
     75b: 48 89 bd 70 ff ff ff         	movq	%rdi, -144(%rbp)
     762: 48 8b bd 70 ff ff ff         	movq	-144(%rbp), %rdi
     769: 48 83 e7 01                  	andq	$1, %rdi
     76d: 48 c7 85 68 ff ff ff 01 00 00 00     	movq	$1, -152(%rbp)
     778: 83 7d d4 00                  	cmpl	$0, -44(%rbp)
     77c: 41 0f 95 c0                  	setne	%r8b
     780: 41 80 f0 ff                  	xorb	$-1, %r8b
     784: 41 80 f0 ff                  	xorb	$-1, %r8b
     788: 41 80 e0 01                  	andb	$1, %r8b
     78c: 45 0f b6 c0                  	movzbl	%r8b, %r8d
     790: 4d 63 c0                     	movslq	%r8d, %r8
     793: 4c 33 85 68 ff ff ff         	xorq	-152(%rbp), %r8
     79a: 4c 2b 85 68 ff ff ff         	subq	-152(%rbp), %r8
     7a1: 4c 8b 9d 60 ff ff ff         	movq	-160(%rbp), %r11
     7a8: 41 83 e3 00                  	andl	$0, %r11d
     7ac: 45 89 c3                     	movl	%r8d, %r11d
     7af: 49 f7 d3                     	notq	%r11
     7b2: 4c 89 9d 60 ff ff ff         	movq	%r11, -160(%rbp)
     7b9: 4c 89 85 60 ff ff ff         	movq	%r8, -160(%rbp)
     7c0: 4c 8b 85 60 ff ff ff         	movq	-160(%rbp), %r8
     7c7: 49 83 e0 ff                  	andq	$-1, %r8
     7cb: 4c 09 c7                     	orq	%r8, %rdi
     7ce: 48 21 fe                     	andq	%rdi, %rsi
     7d1: 48 09 f2                     	orq	%rsi, %rdx
     7d4: 48 21 d1                     	andq	%rdx, %rcx
     7d7: 48 09 c8                     	orq	%rcx, %rax
     7da: 44 8a 5d d3                  	movb	-45(%rbp), %r11b
     7de: 41 82                        	<unknown>
     7e0: e3 f0                        	jrcxz	0x7d2 <_fix_cmp+0x422>
     7e2: 41 88 c3                     	movb	%al, %r11b
     7e5: 49 f7 d3                     	notq	%r11
     7e8: 44 88 5d d3                  	movb	%r11b, -45(%rbp)
     7ec: 88 45 d3                     	movb	%al, -45(%rbp)
     7ef: 0f be 45 d3                  	movsbl	-45(%rbp), %eax
     7f3: 48 83 c4 20                  	addq	$32, %rsp
     7f7: 5d                           	popq	%rbp
     7f8: c3                           	retq
     7f9: 0f 1f 80 00 00 00 00         	nopl	(%rax)

0000000000000800 <_fix_le>:
     800: 55                           	pushq	%rbp
     801: 48 89 e5                     	movq	%rsp, %rbp
     804: 48 83 ec 30                  	subq	$48, %rsp
     808: 4c 8b 5d f8                  	movq	-8(%rbp), %r11
     80c: 41 83 e3 00                  	andl	$0, %r11d
     810: 41 89 fb                     	movl	%edi, %r11d
     813: 49 f7 d3                     	notq	%r11
     816: 4c 89 5d f8                  	movq	%r11, -8(%rbp)
     81a: 48 89 7d f8                  	movq	%rdi, -8(%rbp)
     81e: 4c 8b 5d f0                  	movq	-16(%rbp), %r11
     822: 41 83 e3 00                  	andl	$0, %r11d
     826: 41 89 f3                     	movl	%esi, %r11d
     829: 49 f7 d3                     	notq	%r11
     82c: 4c 89 5d f0                  	movq	%r11, -16(%rbp)
     830: 48 89 75 f0                  	movq	%rsi, -16(%rbp)
     834: 48 8b 45 f8                  	movq	-8(%rbp), %rax
     838: 48 83 e0 03                  	andq	$3, %rax
     83c: 48 83 f8 01                  	cmpq	$1, %rax
     840: 0f 94 c0                     	sete	%al
     843: 24 01                        	andb	$1, %al
     845: 0f b6 c0                     	movzbl	%al, %eax
     848: 48 8b 4d f0                  	movq	-16(%rbp), %rcx
     84c: 48 83 e1 03                  	andq	$3, %rcx
     850: 48 83 f9 01                  	cmpq	$1, %rcx
     854: 0f 94 c1                     	sete	%cl
     857: 80 e1 01                     	andb	$1, %cl
     85a: 0f b6 c9                     	movzbl	%cl, %ecx
     85d: 09 c8                        	orl	%ecx, %eax
     85f: 83 f8 00                     	cmpl	$0, %eax
     862: 0f 95 c0                     	setne	%al
     865: 34 ff                        	xorb	$-1, %al
     867: 34 ff                        	xorb	$-1, %al
     869: 24 01                        	andb	$1, %al
     86b: 0f b6 c0                     	movzbl	%al, %eax
     86e: 89 45 ec                     	movl	%eax, -20(%rbp)
     871: 48 8b 7d f8                  	movq	-8(%rbp), %rdi
     875: 48 8b 75 f0                  	movq	-16(%rbp), %rsi
     879: e8 00 00 00 00               	callq	0x87e <_fix_le+0x7e>
     87e: 44 8a 5d eb                  	movb	-21(%rbp), %r11b
     882: 41 82                        	<unknown>
     884: e3 f0                        	jrcxz	0x876 <_fix_le+0x76>
     886: 41 88 c3                     	movb	%al, %r11b
     889: 49 f7 d3                     	notq	%r11
     88c: 44 88 5d eb                  	movb	%r11b, -21(%rbp)
     890: 88 45 eb                     	movb	%al, -21(%rbp)
     893: 48 c7 45 e0 01 00 00 00      	movq	$1, -32(%rbp)
     89b: 83 7d ec 00                  	cmpl	$0, -20(%rbp)
     89f: 0f 95 c0                     	setne	%al
     8a2: 34 ff                        	xorb	$-1, %al
     8a4: 34 ff                        	xorb	$-1, %al
     8a6: 34 ff                        	xorb	$-1, %al
     8a8: 24 01                        	andb	$1, %al
     8aa: 0f b6 c0                     	movzbl	%al, %eax
     8ad: 48 98                        	cltq
     8af: 48 33 45 e0                  	xorq	-32(%rbp), %rax
     8b3: 48 2b 45 e0                  	subq	-32(%rbp), %rax
     8b7: 4c 8b 5d d8                  	movq	-40(%rbp), %r11
     8bb: 41 83 e3 00                  	andl	$0, %r11d
     8bf: 41 89 c3                     	movl	%eax, %r11d
     8c2: 49 f7 d3                     	notq	%r11
     8c5: 4c 89 5d d8                  	movq	%r11, -40(%rbp)
     8c9: 48 89 45 d8                  	movq	%rax, -40(%rbp)
     8cd: 48 8b 45 d8                  	movq	-40(%rbp), %rax
     8d1: 0f be 4d eb                  	movsbl	-21(%rbp), %ecx
     8d5: 83 f9 00                     	cmpl	$0, %ecx
     8d8: 0f 9e c1                     	setle	%cl
     8db: 80 e1 01                     	andb	$1, %cl
     8de: 0f b6 c9                     	movzbl	%cl, %ecx
     8e1: 48 63 c9                     	movslq	%ecx, %rcx
     8e4: 48 21 c8                     	andq	%rcx, %rax
     8e7: 0f b6 c0                     	movzbl	%al, %eax
     8ea: 48 83 c4 30                  	addq	$48, %rsp
     8ee: 5d                           	popq	%rbp
     8ef: c3                           	retq

00000000000008f0 <_fix_ge>:
     8f0: 55                           	pushq	%rbp
     8f1: 48 89 e5                     	movq	%rsp, %rbp
     8f4: 48 83 ec 30                  	subq	$48, %rsp
     8f8: 4c 8b 5d f8                  	movq	-8(%rbp), %r11
     8fc: 41 83 e3 00                  	andl	$0, %r11d
     900: 41 89 fb                     	movl	%edi, %r11d
     903: 49 f7 d3                     	notq	%r11
     906: 4c 89 5d f8                  	movq	%r11, -8(%rbp)
     90a: 48 89 7d f8                  	movq	%rdi, -8(%rbp)
     90e: 4c 8b 5d f0                  	movq	-16(%rbp), %r11
     912: 41 83 e3 00                  	andl	$0, %r11d
     916: 41 89 f3                     	movl	%esi, %r11d
     919: 49 f7 d3                     	notq	%r11
     91c: 4c 89 5d f0                  	movq	%r11, -16(%rbp)
     920: 48 89 75 f0                  	movq	%rsi, -16(%rbp)
     924: 48 8b 45 f8                  	movq	-8(%rbp), %rax
     928: 48 83 e0 03                  	andq	$3, %rax
     92c: 48 83 f8 01                  	cmpq	$1, %rax
     930: 0f 94 c0                     	sete	%al
     933: 24 01                        	andb	$1, %al
     935: 0f b6 c0                     	movzbl	%al, %eax
     938: 48 8b 4d f0                  	movq	-16(%rbp), %rcx
     93c: 48 83 e1 03                  	andq	$3, %rcx
     940: 48 83 f9 01                  	cmpq	$1, %rcx
     944: 0f 94 c1                     	sete	%cl
     947: 80 e1 01                     	andb	$1, %cl
     94a: 0f b6 c9                     	movzbl	%cl, %ecx
     94d: 09 c8                        	orl	%ecx, %eax
     94f: 83 f8 00                     	cmpl	$0, %eax
     952: 0f 95 c0                     	setne	%al
     955: 34 ff                        	xorb	$-1, %al
     957: 34 ff                        	xorb	$-1, %al
     959: 24 01                        	andb	$1, %al
     95b: 0f b6 c0                     	movzbl	%al, %eax
     95e: 89 45 ec                     	movl	%eax, -20(%rbp)
     961: 48 8b 7d f8                  	movq	-8(%rbp), %rdi
     965: 48 8b 75 f0                  	movq	-16(%rbp), %rsi
     969: e8 00 00 00 00               	callq	0x96e <_fix_ge+0x7e>
     96e: 44 8a 5d eb                  	movb	-21(%rbp), %r11b
     972: 41 82                        	<unknown>
     974: e3 f0                        	jrcxz	0x966 <_fix_ge+0x76>
     976: 41 88 c3                     	movb	%al, %r11b
     979: 49 f7 d3                     	notq	%r11
     97c: 44 88 5d eb                  	movb	%r11b, -21(%rbp)
     980: 88 45 eb                     	movb	%al, -21(%rbp)
     983: 48 c7 45 e0 01 00 00 00      	movq	$1, -32(%rbp)
     98b: 83 7d ec 00                  	cmpl	$0, -20(%rbp)
     98f: 0f 95 c0                     	setne	%al
     992: 34 ff                        	xorb	$-1, %al
     994: 34 ff                        	xorb	$-1, %al
     996: 34 ff                        	xorb	$-1, %al
     998: 24 01                        	andb	$1, %al
     99a: 0f b6 c0                     	movzbl	%al, %eax
     99d: 48 98                        	cltq
     99f: 48 33 45 e0                  	xorq	-32(%rbp), %rax
     9a3: 48 2b 45 e0                  	subq	-32(%rbp), %rax
     9a7: 4c 8b 5d d8                  	movq	-40(%rbp), %r11
     9ab: 41 83 e3 00                  	andl	$0, %r11d
     9af: 41 89 c3                     	movl	%eax, %r11d
     9b2: 49 f7 d3                     	notq	%r11
     9b5: 4c 89 5d d8                  	movq	%r11, -40(%rbp)
     9b9: 48 89 45 d8                  	movq	%rax, -40(%rbp)
     9bd: 48 8b 45 d8                  	movq	-40(%rbp), %rax
     9c1: 0f be 4d eb                  	movsbl	-21(%rbp), %ecx
     9c5: 83 f9 00                     	cmpl	$0, %ecx
     9c8: 0f 9d c1                     	setge	%cl
     9cb: 80 e1 01                     	andb	$1, %cl
     9ce: 0f b6 c9                     	movzbl	%cl, %ecx
     9d1: 48 63 c9                     	movslq	%ecx, %rcx
     9d4: 48 21 c8                     	andq	%rcx, %rax
     9d7: 0f b6 c0                     	movzbl	%al, %eax
     9da: 48 83 c4 30                  	addq	$48, %rsp
     9de: 5d                           	popq	%rbp
     9df: c3                           	retq

00000000000009e0 <_fix_lt>:
     9e0: 55                           	pushq	%rbp
     9e1: 48 89 e5                     	movq	%rsp, %rbp
     9e4: 48 83 ec 30                  	subq	$48, %rsp
     9e8: 4c 8b 5d f8                  	movq	-8(%rbp), %r11
     9ec: 41 83 e3 00                  	andl	$0, %r11d
     9f0: 41 89 fb                     	movl	%edi, %r11d
     9f3: 49 f7 d3                     	notq	%r11
     9f6: 4c 89 5d f8                  	movq	%r11, -8(%rbp)
     9fa: 48 89 7d f8                  	movq	%rdi, -8(%rbp)
     9fe: 4c 8b 5d f0                  	movq	-16(%rbp), %r11
     a02: 41 83 e3 00                  	andl	$0, %r11d
     a06: 41 89 f3                     	movl	%esi, %r11d
     a09: 49 f7 d3                     	notq	%r11
     a0c: 4c 89 5d f0                  	movq	%r11, -16(%rbp)
     a10: 48 89 75 f0                  	movq	%rsi, -16(%rbp)
     a14: 48 8b 45 f8                  	movq	-8(%rbp), %rax
     a18: 48 83 e0 03                  	andq	$3, %rax
     a1c: 48 83 f8 01                  	cmpq	$1, %rax
     a20: 0f 94 c0                     	sete	%al
     a23: 24 01                        	andb	$1, %al
     a25: 0f b6 c0                     	movzbl	%al, %eax
     a28: 48 8b 4d f0                  	movq	-16(%rbp), %rcx
     a2c: 48 83 e1 03                  	andq	$3, %rcx
     a30: 48 83 f9 01                  	cmpq	$1, %rcx
     a34: 0f 94 c1                     	sete	%cl
     a37: 80 e1 01                     	andb	$1, %cl
     a3a: 0f b6 c9                     	movzbl	%cl, %ecx
     a3d: 09 c8                        	orl	%ecx, %eax
     a3f: 83 f8 00                     	cmpl	$0, %eax
     a42: 0f 95 c0                     	setne	%al
     a45: 34 ff                        	xorb	$-1, %al
     a47: 34 ff                        	xorb	$-1, %al
     a49: 24 01                        	andb	$1, %al
     a4b: 0f b6 c0                     	movzbl	%al, %eax
     a4e: 89 45 ec                     	movl	%eax, -20(%rbp)
     a51: 48 8b 7d f8                  	movq	-8(%rbp), %rdi
     a55: 48 8b 75 f0                  	movq	-16(%rbp), %rsi
     a59: e8 00 00 00 00               	callq	0xa5e <_fix_lt+0x7e>
     a5e: 44 8a 5d eb                  	movb	-21(%rbp), %r11b
     a62: 41 82                        	<unknown>
     a64: e3 f0                        	jrcxz	0xa56 <_fix_lt+0x76>
     a66: 41 88 c3                     	movb	%al, %r11b
     a69: 49 f7 d3                     	notq	%r11
     a6c: 44 88 5d eb                  	movb	%r11b, -21(%rbp)
     a70: 88 45 eb                     	movb	%al, -21(%rbp)
     a73: 48 c7 45 e0 01 00 00 00      	movq	$1, -32(%rbp)
     a7b: 83 7d ec 00                  	cmpl	$0, -20(%rbp)
     a7f: 0f 95 c0                     	setne	%al
     a82: 34 ff                        	xorb	$-1, %al
     a84: 34 ff                        	xorb	$-1, %al
     a86: 34 ff                        	xorb	$-1, %al
     a88: 24 01                        	andb	$1, %al
     a8a: 0f b6 c0                     	movzbl	%al, %eax
     a8d: 48 98                        	cltq
     a8f: 48 33 45 e0                  	xorq	-32(%rbp), %rax
     a93: 48 2b 45 e0                  	subq	-32(%rbp), %rax
     a97: 4c 8b 5d d8                  	movq	-40(%rbp), %r11
     a9b: 41 83 e3 00                  	andl	$0, %r11d
     a9f: 41 89 c3                     	movl	%eax, %r11d
     aa2: 49 f7 d3                     	notq	%r11
     aa5: 4c 89 5d d8                  	movq	%r11, -40(%rbp)
     aa9: 48 89 45 d8                  	movq	%rax, -40(%rbp)
     aad: 48 8b 45 d8                  	movq	-40(%rbp), %rax
     ab1: 0f be 4d eb                  	movsbl	-21(%rbp), %ecx
     ab5: 83 f9 00                     	cmpl	$0, %ecx
     ab8: 0f 9c c1                     	setl	%cl
     abb: 80 e1 01                     	andb	$1, %cl
     abe: 0f b6 c9                     	movzbl	%cl, %ecx
     ac1: 48 63 c9                     	movslq	%ecx, %rcx
     ac4: 48 21 c8                     	andq	%rcx, %rax
     ac7: 0f b6 c0                     	movzbl	%al, %eax
     aca: 48 83 c4 30                  	addq	$48, %rsp
     ace: 5d                           	popq	%rbp
     acf: c3                           	retq

0000000000000ad0 <_fix_gt>:
     ad0: 55                           	pushq	%rbp
     ad1: 48 89 e5                     	movq	%rsp, %rbp
     ad4: 48 83 ec 30                  	subq	$48, %rsp
     ad8: 4c 8b 5d f8                  	movq	-8(%rbp), %r11
     adc: 41 83 e3 00                  	andl	$0, %r11d
     ae0: 41 89 fb                     	movl	%edi, %r11d
     ae3: 49 f7 d3                     	notq	%r11
     ae6: 4c 89 5d f8                  	movq	%r11, -8(%rbp)
     aea: 48 89 7d f8                  	movq	%rdi, -8(%rbp)
     aee: 4c 8b 5d f0                  	movq	-16(%rbp), %r11
     af2: 41 83 e3 00                  	andl	$0, %r11d
     af6: 41 89 f3                     	movl	%esi, %r11d
     af9: 49 f7 d3                     	notq	%r11
     afc: 4c 89 5d f0                  	movq	%r11, -16(%rbp)
     b00: 48 89 75 f0                  	movq	%rsi, -16(%rbp)
     b04: 48 8b 45 f8                  	movq	-8(%rbp), %rax
     b08: 48 83 e0 03                  	andq	$3, %rax
     b0c: 48 83 f8 01                  	cmpq	$1, %rax
     b10: 0f 94 c0                     	sete	%al
     b13: 24 01                        	andb	$1, %al
     b15: 0f b6 c0                     	movzbl	%al, %eax
     b18: 48 8b 4d f0                  	movq	-16(%rbp), %rcx
     b1c: 48 83 e1 03                  	andq	$3, %rcx
     b20: 48 83 f9 01                  	cmpq	$1, %rcx
     b24: 0f 94 c1                     	sete	%cl
     b27: 80 e1 01                     	andb	$1, %cl
     b2a: 0f b6 c9                     	movzbl	%cl, %ecx
     b2d: 09 c8                        	orl	%ecx, %eax
     b2f: 83 f8 00                     	cmpl	$0, %eax
     b32: 0f 95 c0                     	setne	%al
     b35: 34 ff                        	xorb	$-1, %al
     b37: 34 ff                        	xorb	$-1, %al
     b39: 24 01                        	andb	$1, %al
     b3b: 0f b6 c0                     	movzbl	%al, %eax
     b3e: 89 45 ec                     	movl	%eax, -20(%rbp)
     b41: 48 8b 7d f8                  	movq	-8(%rbp), %rdi
     b45: 48 8b 75 f0                  	movq	-16(%rbp), %rsi
     b49: e8 00 00 00 00               	callq	0xb4e <_fix_gt+0x7e>
     b4e: 44 8a 5d eb                  	movb	-21(%rbp), %r11b
     b52: 41 82                        	<unknown>
     b54: e3 f0                        	jrcxz	0xb46 <_fix_gt+0x76>
     b56: 41 88 c3                     	movb	%al, %r11b
     b59: 49 f7 d3                     	notq	%r11
     b5c: 44 88 5d eb                  	movb	%r11b, -21(%rbp)
     b60: 88 45 eb                     	movb	%al, -21(%rbp)
     b63: 48 c7 45 e0 01 00 00 00      	movq	$1, -32(%rbp)
     b6b: 83 7d ec 00                  	cmpl	$0, -20(%rbp)
     b6f: 0f 95 c0                     	setne	%al
     b72: 34 ff                        	xorb	$-1, %al
     b74: 34 ff                        	xorb	$-1, %al
     b76: 34 ff                        	xorb	$-1, %al
     b78: 24 01                        	andb	$1, %al
     b7a: 0f b6 c0                     	movzbl	%al, %eax
     b7d: 48 98                        	cltq
     b7f: 48 33 45 e0                  	xorq	-32(%rbp), %rax
     b83: 48 2b 45 e0                  	subq	-32(%rbp), %rax
     b87: 4c 8b 5d d8                  	movq	-40(%rbp), %r11
     b8b: 41 83 e3 00                  	andl	$0, %r11d
     b8f: 41 89 c3                     	movl	%eax, %r11d
     b92: 49 f7 d3                     	notq	%r11
     b95: 4c 89 5d d8                  	movq	%r11, -40(%rbp)
     b99: 48 89 45 d8                  	movq	%rax, -40(%rbp)
     b9d: 48 8b 45 d8                  	movq	-40(%rbp), %rax
     ba1: 0f be 4d eb                  	movsbl	-21(%rbp), %ecx
     ba5: 83 f9 00                     	cmpl	$0, %ecx
     ba8: 0f 9f c1                     	setg	%cl
     bab: 80 e1 01                     	andb	$1, %cl
     bae: 0f b6 c9                     	movzbl	%cl, %ecx
     bb1: 48 63 c9                     	movslq	%ecx, %rcx
     bb4: 48 21 c8                     	andq	%rcx, %rax
     bb7: 0f b6 c0                     	movzbl	%al, %eax
     bba: 48 83 c4 30                  	addq	$48, %rsp
     bbe: 5d                           	popq	%rbp
     bbf: c3                           	retq

0000000000000bc0 <_fix_neg>:
     bc0: 55                           	pushq	%rbp
     bc1: 48 89 e5                     	movq	%rsp, %rbp
     bc4: 4c 8b 5d f8                  	movq	-8(%rbp), %r11
     bc8: 41 83 e3 00                  	andl	$0, %r11d
     bcc: 41 89 fb                     	movl	%edi, %r11d
     bcf: 49 f7 d3                     	notq	%r11
     bd2: 4c 89 5d f8                  	movq	%r11, -8(%rbp)
     bd6: 48 89 7d f8                  	movq	%rdi, -8(%rbp)
     bda: 48 8b 45 f8                  	movq	-8(%rbp), %rax
     bde: 48 83 e0 03                  	andq	$3, %rax
     be2: 48 83 f8 03                  	cmpq	$3, %rax
     be6: 0f 94 c0                     	sete	%al
     be9: 24 01                        	andb	$1, %al
     beb: 0f b6 c0                     	movzbl	%al, %eax
     bee: 48 b9 00 00 00 00 00 00 00 80	movabsq	$-9223372036854775808, %rcx ## imm = 0x8000000000000000
     bf8: 48 39 4d f8                  	cmpq	%rcx, -8(%rbp)
     bfc: 0f 94 c1                     	sete	%cl
     bff: 80 e1 01                     	andb	$1, %cl
     c02: 0f b6 c9                     	movzbl	%cl, %ecx
     c05: 09 c8                        	orl	%ecx, %eax
     c07: 44 8a 5d f7                  	movb	-9(%rbp), %r11b
     c0b: 41 82                        	<unknown>
     c0d: e3 f0                        	jrcxz	0xbff <_fix_neg+0x3f>
     c0f: 41 88 c3                     	movb	%al, %r11b
     c12: 49 f7 d3                     	notq	%r11
     c15: 44 88 5d f7                  	movb	%r11b, -9(%rbp)
     c19: 88 45 f7                     	movb	%al, -9(%rbp)
     c1c: 48 8b 45 f8                  	movq	-8(%rbp), %rax
     c20: 48 83 e0 03                  	andq	$3, %rax
     c24: 48 83 f8 02                  	cmpq	$2, %rax
     c28: 0f 94 c0                     	sete	%al
     c2b: 24 01                        	andb	$1, %al
     c2d: 0f b6 c0                     	movzbl	%al, %eax
     c30: 44 8a 5d f6                  	movb	-10(%rbp), %r11b
     c34: 41 82                        	<unknown>
     c36: e3 f0                        	jrcxz	0xc28 <_fix_neg+0x68>
     c38: 41 88 c3                     	movb	%al, %r11b
     c3b: 49 f7 d3                     	notq	%r11
     c3e: 44 88 5d f6                  	movb	%r11b, -10(%rbp)
     c42: 88 45 f6                     	movb	%al, -10(%rbp)
     c45: 48 8b 45 f8                  	movq	-8(%rbp), %rax
     c49: 48 83 e0 03                  	andq	$3, %rax
     c4d: 48 83 f8 01                  	cmpq	$1, %rax
     c51: 0f 94 c0                     	sete	%al
     c54: 24 01                        	andb	$1, %al
     c56: 0f b6 c0                     	movzbl	%al, %eax
     c59: 44 8a 5d f5                  	movb	-11(%rbp), %r11b
     c5d: 41 82                        	<unknown>
     c5f: e3 f0                        	jrcxz	0xc51 <_fix_neg+0x91>
     c61: 41 88 c3                     	movb	%al, %r11b
     c64: 49 f7 d3                     	notq	%r11
     c67: 44 88 5d f5                  	movb	%r11b, -11(%rbp)
     c6b: 88 45 f5                     	movb	%al, -11(%rbp)
     c6e: 48 8b 45 f8                  	movq	-8(%rbp), %rax
     c72: 48 83 f0 ff                  	xorq	$-1, %rax
     c76: 48 83 c0 04                  	addq	$4, %rax
     c7a: 48 83 e0 fc                  	andq	$-4, %rax
     c7e: 4c 8b 5d e8                  	movq	-24(%rbp), %r11
     c82: 41 83 e3 00                  	andl	$0, %r11d
     c86: 41 89 c3                     	movl	%eax, %r11d
     c89: 49 f7 d3                     	notq	%r11
     c8c: 4c 89 5d e8                  	movq	%r11, -24(%rbp)
     c90: 48 89 45 e8                  	movq	%rax, -24(%rbp)
     c94: 0f b6 45 f5                  	movzbl	-11(%rbp), %eax
     c98: 0f b6 4d f5                  	movzbl	-11(%rbp), %ecx
     c9c: c1 e1 01                     	shll	$1, %ecx
     c9f: 09 c8                        	orl	%ecx, %eax
     ca1: 48 98                        	cltq
     ca3: 48 83 e0 01                  	andq	$1, %rax
     ca7: 0f b6 4d f7                  	movzbl	-9(%rbp), %ecx
     cab: 80 7d f5 00                  	cmpb	$0, -11(%rbp)
     caf: 0f 95 c2                     	setne	%dl
     cb2: 80 f2 ff                     	xorb	$-1, %dl
     cb5: 80 e2 01                     	andb	$1, %dl
     cb8: 0f b6 d2                     	movzbl	%dl, %edx
     cbb: 21 d1                        	andl	%edx, %ecx
     cbd: 0f b6 55 f7                  	movzbl	-9(%rbp), %edx
     cc1: 80 7d f5 00                  	cmpb	$0, -11(%rbp)
     cc5: 40 0f 95 c6                  	setne	%sil
     cc9: 40 80 f6 ff                  	xorb	$-1, %sil
     ccd: 40 80 e6 01                  	andb	$1, %sil
     cd1: 40 0f b6 f6                  	movzbl	%sil, %esi
     cd5: 21 f2                        	andl	%esi, %edx
     cd7: c1 e2 01                     	shll	$1, %edx
     cda: 09 d1                        	orl	%edx, %ecx
     cdc: 48 63 c9                     	movslq	%ecx, %rcx
     cdf: 48 83 e1 02                  	andq	$2, %rcx
     ce3: 48 09 c8                     	orq	%rcx, %rax
     ce6: 0f b6 4d f6                  	movzbl	-10(%rbp), %ecx
     cea: 80 7d f5 00                  	cmpb	$0, -11(%rbp)
     cee: 0f 95 c2                     	setne	%dl
     cf1: 80 f2 ff                     	xorb	$-1, %dl
     cf4: 80 e2 01                     	andb	$1, %dl
     cf7: 0f b6 d2                     	movzbl	%dl, %edx
     cfa: 21 d1                        	andl	%edx, %ecx
     cfc: 0f b6 55 f6                  	movzbl	-10(%rbp), %edx
     d00: 80 7d f5 00                  	cmpb	$0, -11(%rbp)
     d04: 40 0f 95 c6                  	setne	%sil
     d08: 40 80 f6 ff                  	xorb	$-1, %sil
     d0c: 40 80 e6 01                  	andb	$1, %sil
     d10: 40 0f b6 f6                  	movzbl	%sil, %esi
     d14: 21 f2                        	andl	%esi, %edx
     d16: c1 e2 01                     	shll	$1, %edx
     d19: 09 d1                        	orl	%edx, %ecx
     d1b: 48 63 c9                     	movslq	%ecx, %rcx
     d1e: 48 83 e1 03                  	andq	$3, %rcx
     d22: 48 09 c8                     	orq	%rcx, %rax
     d25: 48 8b 4d e8                  	movq	-24(%rbp), %rcx
     d29: 48 83 e1 fc                  	andq	$-4, %rcx
     d2d: 48 09 c8                     	orq	%rcx, %rax
     d30: 5d                           	popq	%rbp
     d31: c3                           	retq
     d32: 66 2e 0f 1f 84 00 00 00 00 00	nopw	%cs:(%rax,%rax)
     d3c: 0f 1f 40 00                  	nopl	(%rax)

0000000000000d40 <_fix_abs>:
     d40: 55                           	pushq	%rbp
     d41: 48 89 e5                     	movq	%rsp, %rbp
     d44: 4c 8b 5d f8                  	movq	-8(%rbp), %r11
     d48: 41 83 e3 00                  	andl	$0, %r11d
     d4c: 41 89 fb                     	movl	%edi, %r11d
     d4f: 49 f7 d3                     	notq	%r11
     d52: 4c 89 5d f8                  	movq	%r11, -8(%rbp)
     d56: 48 89 7d f8                  	movq	%rdi, -8(%rbp)
     d5a: 48 8b 45 f8                  	movq	-8(%rbp), %rax
     d5e: 48 83 e0 03                  	andq	$3, %rax
     d62: 48 83 f8 02                  	cmpq	$2, %rax
     d66: 0f 94 c0                     	sete	%al
     d69: 24 01                        	andb	$1, %al
     d6b: 0f b6 c0                     	movzbl	%al, %eax
     d6e: 44 8a 5d f7                  	movb	-9(%rbp), %r11b
     d72: 41 82                        	<unknown>
     d74: e3 f0                        	jrcxz	0xd66 <_fix_abs+0x26>
     d76: 41 88 c3                     	movb	%al, %r11b
     d79: 49 f7 d3                     	notq	%r11
     d7c: 44 88 5d f7                  	movb	%r11b, -9(%rbp)
     d80: 88 45 f7                     	movb	%al, -9(%rbp)
     d83: 48 8b 45 f8                  	movq	-8(%rbp), %rax
     d87: 48 83 e0 03                  	andq	$3, %rax
     d8b: 48 83 f8 03                  	cmpq	$3, %rax
     d8f: 0f 94 c0                     	sete	%al
     d92: 24 01                        	andb	$1, %al
     d94: 0f b6 c0                     	movzbl	%al, %eax
     d97: 44 8a 5d f6                  	movb	-10(%rbp), %r11b
     d9b: 41 82                        	<unknown>
     d9d: e3 f0                        	jrcxz	0xd8f <_fix_abs+0x4f>
     d9f: 41 88 c3                     	movb	%al, %r11b
     da2: 49 f7 d3                     	notq	%r11
     da5: 44 88 5d f6                  	movb	%r11b, -10(%rbp)
     da9: 88 45 f6                     	movb	%al, -10(%rbp)
     dac: 48 8b 45 f8                  	movq	-8(%rbp), %rax
     db0: 48 83 e0 03                  	andq	$3, %rax
     db4: 48 83 f8 01                  	cmpq	$1, %rax
     db8: 0f 94 c0                     	sete	%al
     dbb: 24 01                        	andb	$1, %al
     dbd: 0f b6 c0                     	movzbl	%al, %eax
     dc0: 44 8a 5d f5                  	movb	-11(%rbp), %r11b
     dc4: 41 82                        	<unknown>
     dc6: e3 f0                        	jrcxz	0xdb8 <_fix_abs+0x78>
     dc8: 41 88 c3                     	movb	%al, %r11b
     dcb: 49 f7 d3                     	notq	%r11
     dce: 44 88 5d f5                  	movb	%r11b, -11(%rbp)
     dd2: 88 45 f5                     	movb	%al, -11(%rbp)
     dd5: 48 c7 45 e0 01 00 00 00      	movq	$1, -32(%rbp)
     ddd: 48 8b 45 f8                  	movq	-8(%rbp), %rax
     de1: 48 83 f0 ff                  	xorq	$-1, %rax
     de5: 48 b9 00 00 00 00 00 00 00 80	movabsq	$-9223372036854775808, %rcx ## imm = 0x8000000000000000
     def: 48 21 c8                     	andq	%rcx, %rax
     df2: 48 83 f8 00                  	cmpq	$0, %rax
     df6: 0f 95 c0                     	setne	%al
     df9: 34 ff                        	xorb	$-1, %al
     dfb: 34 ff                        	xorb	$-1, %al
     dfd: 24 01                        	andb	$1, %al
     dff: 0f b6 c0                     	movzbl	%al, %eax
     e02: 48 98                        	cltq
     e04: 48 33 45 e0                  	xorq	-32(%rbp), %rax
     e08: 48 2b 45 e0                  	subq	-32(%rbp), %rax
     e0c: 4c 8b 5d d8                  	movq	-40(%rbp), %r11
     e10: 41 83 e3 00                  	andl	$0, %r11d
     e14: 41 89 c3                     	movl	%eax, %r11d
     e17: 49 f7 d3                     	notq	%r11
     e1a: 4c 89 5d d8                  	movq	%r11, -40(%rbp)
     e1e: 48 89 45 d8                  	movq	%rax, -40(%rbp)
     e22: 48 8b 45 d8                  	movq	-40(%rbp), %rax
     e26: 48 23 45 f8                  	andq	-8(%rbp), %rax
     e2a: 48 c7 45 d0 01 00 00 00      	movq	$1, -48(%rbp)
     e32: 48 b9 00 00 00 00 00 00 00 80	movabsq	$-9223372036854775808, %rcx ## imm = 0x8000000000000000
     e3c: 48 23 4d f8                  	andq	-8(%rbp), %rcx
     e40: 48 83 f9 00                  	cmpq	$0, %rcx
     e44: 0f 95 c1                     	setne	%cl
     e47: 80 f1 ff                     	xorb	$-1, %cl
     e4a: 80 f1 ff                     	xorb	$-1, %cl
     e4d: 80 e1 01                     	andb	$1, %cl
     e50: 0f b6 c9                     	movzbl	%cl, %ecx
     e53: 48 63 c9                     	movslq	%ecx, %rcx
     e56: 48 33 4d d0                  	xorq	-48(%rbp), %rcx
     e5a: 48 2b 4d d0                  	subq	-48(%rbp), %rcx
     e5e: 4c 8b 5d c8                  	movq	-56(%rbp), %r11
     e62: 41 83 e3 00                  	andl	$0, %r11d
     e66: 41 89 cb                     	movl	%ecx, %r11d
     e69: 49 f7 d3                     	notq	%r11
     e6c: 4c 89 5d c8                  	movq	%r11, -56(%rbp)
     e70: 48 89 4d c8                  	movq	%rcx, -56(%rbp)
     e74: 48 8b 4d c8                  	movq	-56(%rbp), %rcx
     e78: 48 8b 55 f8                  	movq	-8(%rbp), %rdx
     e7c: 48 83 f2 ff                  	xorq	$-1, %rdx
     e80: 48 83 c2 04                  	addq	$4, %rdx
     e84: 48 83 e2 fc                  	andq	$-4, %rdx
     e88: 48 21 d1                     	andq	%rdx, %rcx
     e8b: 48 09 c8                     	orq	%rcx, %rax
     e8e: 4c 8b 5d e8                  	movq	-24(%rbp), %r11
     e92: 41 83 e3 00                  	andl	$0, %r11d
     e96: 41 89 c3                     	movl	%eax, %r11d
     e99: 49 f7 d3                     	notq	%r11
     e9c: 4c 89 5d e8                  	movq	%r11, -24(%rbp)
     ea0: 48 89 45 e8                  	movq	%rax, -24(%rbp)
     ea4: 0f b6 45 f7                  	movzbl	-9(%rbp), %eax
     ea8: 0f b6 4d f6                  	movzbl	-10(%rbp), %ecx
     eac: 09 c8                        	orl	%ecx, %eax
     eae: 83 f8 00                     	cmpl	$0, %eax
     eb1: 0f 95 c0                     	setne	%al
     eb4: 34 ff                        	xorb	$-1, %al
     eb6: 24 01                        	andb	$1, %al
     eb8: 0f b6 c8                     	movzbl	%al, %ecx
     ebb: 48 b8 00 00 00 00 00 00 00 80	movabsq	$-9223372036854775808, %rax ## imm = 0x8000000000000000
     ec5: 48 23 45 f8                  	andq	-8(%rbp), %rax
     ec9: 48 83 f8 00                  	cmpq	$0, %rax
     ecd: 0f 95 c0                     	setne	%al
     ed0: 34 ff                        	xorb	$-1, %al
     ed2: 34 ff                        	xorb	$-1, %al
     ed4: 24 01                        	andb	$1, %al
     ed6: 0f b6 c0                     	movzbl	%al, %eax
     ed9: 21 c1                        	andl	%eax, %ecx
     edb: 48 8b 45 f8                  	movq	-8(%rbp), %rax
     edf: 48 3b 45 e8                  	cmpq	-24(%rbp), %rax
     ee3: 0f 94 c0                     	sete	%al
     ee6: 24 01                        	andb	$1, %al
     ee8: 0f b6 c0                     	movzbl	%al, %eax
     eeb: 21 c1                        	andl	%eax, %ecx
     eed: 0f b6 45 f7                  	movzbl	-9(%rbp), %eax
     ef1: 09 c8                        	orl	%ecx, %eax
     ef3: 44 8a 5d f7                  	movb	-9(%rbp), %r11b
     ef7: 41 82                        	<unknown>
     ef9: e3 f0                        	jrcxz	0xeeb <_fix_abs+0x1ab>
     efb: 41 88 c3                     	movb	%al, %r11b
     efe: 49 f7 d3                     	notq	%r11
     f01: 44 88 5d f7                  	movb	%r11b, -9(%rbp)
     f05: 88 45 f7                     	movb	%al, -9(%rbp)
     f08: 0f b6 45 f5                  	movzbl	-11(%rbp), %eax
     f0c: 0f b6 4d f5                  	movzbl	-11(%rbp), %ecx
     f10: c1 e1 01                     	shll	$1, %ecx
     f13: 09 c8                        	orl	%ecx, %eax
     f15: 48 98                        	cltq
     f17: 48 83 e0 01                  	andq	$1, %rax
     f1b: 0f b6 4d f7                  	movzbl	-9(%rbp), %ecx
     f1f: 0f b6 55 f6                  	movzbl	-10(%rbp), %edx
     f23: 09 d1                        	orl	%edx, %ecx
     f25: 80 7d f5 00                  	cmpb	$0, -11(%rbp)
     f29: 0f 95 c2                     	setne	%dl
     f2c: 80 f2 ff                     	xorb	$-1, %dl
     f2f: 80 e2 01                     	andb	$1, %dl
     f32: 0f b6 d2                     	movzbl	%dl, %edx
     f35: 21 d1                        	andl	%edx, %ecx
     f37: 0f b6 55 f7                  	movzbl	-9(%rbp), %edx
     f3b: 0f b6 75 f6                  	movzbl	-10(%rbp), %esi
     f3f: 09 f2                        	orl	%esi, %edx
     f41: 80 7d f5 00                  	cmpb	$0, -11(%rbp)
     f45: 40 0f 95 c6                  	setne	%sil
     f49: 40 80 f6 ff                  	xorb	$-1, %sil
     f4d: 40 80 e6 01                  	andb	$1, %sil
     f51: 40 0f b6 f6                  	movzbl	%sil, %esi
     f55: 21 f2                        	andl	%esi, %edx
     f57: c1 e2 01                     	shll	$1, %edx
     f5a: 09 d1                        	orl	%edx, %ecx
     f5c: 48 63 c9                     	movslq	%ecx, %rcx
     f5f: 48 83 e1 02                  	andq	$2, %rcx
     f63: 48 09 c8                     	orq	%rcx, %rax
     f66: 48 8b 4d e8                  	movq	-24(%rbp), %rcx
     f6a: 48 83 e1 fc                  	andq	$-4, %rcx
     f6e: 48 09 c8                     	orq	%rcx, %rax
     f71: 5d                           	popq	%rbp
     f72: c3                           	retq
     f73: 66 2e 0f 1f 84 00 00 00 00 00	nopw	%cs:(%rax,%rax)
     f7d: 0f 1f 00                     	nopl	(%rax)

0000000000000f80 <_fix_sub>:
     f80: 55                           	pushq	%rbp
     f81: 48 89 e5                     	movq	%rsp, %rbp
     f84: 48 83 ec 20                  	subq	$32, %rsp
     f88: 4c 8b 5d f8                  	movq	-8(%rbp), %r11
     f8c: 41 83 e3 00                  	andl	$0, %r11d
     f90: 41 89 fb                     	movl	%edi, %r11d
     f93: 49 f7 d3                     	notq	%r11
     f96: 4c 89 5d f8                  	movq	%r11, -8(%rbp)
     f9a: 48 89 7d f8                  	movq	%rdi, -8(%rbp)
     f9e: 4c 8b 5d f0                  	movq	-16(%rbp), %r11
     fa2: 41 83 e3 00                  	andl	$0, %r11d
     fa6: 41 89 f3                     	movl	%esi, %r11d
     fa9: 49 f7 d3                     	notq	%r11
     fac: 4c 89 5d f0                  	movq	%r11, -16(%rbp)
     fb0: 48 89 75 f0                  	movq	%rsi, -16(%rbp)
     fb4: 48 8b 45 f8                  	movq	-8(%rbp), %rax
     fb8: 4c 8b 5d e8                  	movq	-24(%rbp), %r11
     fbc: 41 83 e3 00                  	andl	$0, %r11d
     fc0: 41 89 c3                     	movl	%eax, %r11d
     fc3: 49 f7 d3                     	notq	%r11
     fc6: 4c 89 5d e8                  	movq	%r11, -24(%rbp)
     fca: 48 89 45 e8                  	movq	%rax, -24(%rbp)
     fce: 48 8b 7d f0                  	movq	-16(%rbp), %rdi
     fd2: e8 00 00 00 00               	callq	0xfd7 <_fix_sub+0x57>
     fd7: 48 8b 7d e8                  	movq	-24(%rbp), %rdi
     fdb: 48 89 c6                     	movq	%rax, %rsi
     fde: e8 00 00 00 00               	callq	0xfe3 <_fix_sub+0x63>
     fe3: 48 83 c4 20                  	addq	$32, %rsp
     fe7: 5d                           	popq	%rbp
     fe8: c3                           	retq
     fe9: 0f 1f 80 00 00 00 00         	nopl	(%rax)

0000000000000ff0 <_fix_add>:
     ff0: 55                           	pushq	%rbp
     ff1: 48 89 e5                     	movq	%rsp, %rbp
     ff4: 4c 8b 5d f8                  	movq	-8(%rbp), %r11
     ff8: 41 83 e3 00                  	andl	$0, %r11d
     ffc: 41 89 fb                     	movl	%edi, %r11d
     fff: 49 f7 d3                     	notq	%r11
    1002: 4c 89 5d f8                  	movq	%r11, -8(%rbp)
    1006: 48 89 7d f8                  	movq	%rdi, -8(%rbp)
    100a: 4c 8b 5d f0                  	movq	-16(%rbp), %r11
    100e: 41 83 e3 00                  	andl	$0, %r11d
    1012: 41 89 f3                     	movl	%esi, %r11d
    1015: 49 f7 d3                     	notq	%r11
    1018: 4c 89 5d f0                  	movq	%r11, -16(%rbp)
    101c: 48 89 75 f0                  	movq	%rsi, -16(%rbp)
    1020: 48 8b 45 f8                  	movq	-8(%rbp), %rax
    1024: 48 83 e0 03                  	andq	$3, %rax
    1028: 48 83 f8 01                  	cmpq	$1, %rax
    102c: 0f 94 c0                     	sete	%al
    102f: 24 01                        	andb	$1, %al
    1031: 0f b6 c0                     	movzbl	%al, %eax
    1034: 48 8b 4d f0                  	movq	-16(%rbp), %rcx
    1038: 48 83 e1 03                  	andq	$3, %rcx
    103c: 48 83 f9 01                  	cmpq	$1, %rcx
    1040: 0f 94 c1                     	sete	%cl
    1043: 80 e1 01                     	andb	$1, %cl
    1046: 0f b6 c9                     	movzbl	%cl, %ecx
    1049: 09 c8                        	orl	%ecx, %eax
    104b: 44 8a 5d ef                  	movb	-17(%rbp), %r11b
    104f: 41 82                        	<unknown>
    1051: e3 f0                        	jrcxz	0x1043 <_fix_add+0x53>
    1053: 41 88 c3                     	movb	%al, %r11b
    1056: 49 f7 d3                     	notq	%r11
    1059: 44 88 5d ef                  	movb	%r11b, -17(%rbp)
    105d: 88 45 ef                     	movb	%al, -17(%rbp)
    1060: 48 8b 45 f8                  	movq	-8(%rbp), %rax
    1064: 48 83 e0 03                  	andq	$3, %rax
    1068: 48 83 f8 02                  	cmpq	$2, %rax
    106c: 0f 94 c0                     	sete	%al
    106f: 24 01                        	andb	$1, %al
    1071: 0f b6 c0                     	movzbl	%al, %eax
    1074: 48 8b 4d f0                  	movq	-16(%rbp), %rcx
    1078: 48 83 e1 03                  	andq	$3, %rcx
    107c: 48 83 f9 02                  	cmpq	$2, %rcx
    1080: 0f 94 c1                     	sete	%cl
    1083: 80 e1 01                     	andb	$1, %cl
    1086: 0f b6 c9                     	movzbl	%cl, %ecx
    1089: 09 c8                        	orl	%ecx, %eax
    108b: 44 8a 5d ee                  	movb	-18(%rbp), %r11b
    108f: 41 82                        	<unknown>
    1091: e3 f0                        	jrcxz	0x1083 <_fix_add+0x93>
    1093: 41 88 c3                     	movb	%al, %r11b
    1096: 49 f7 d3                     	notq	%r11
    1099: 44 88 5d ee                  	movb	%r11b, -18(%rbp)
    109d: 88 45 ee                     	movb	%al, -18(%rbp)
    10a0: 48 8b 45 f8                  	movq	-8(%rbp), %rax
    10a4: 48 83 e0 03                  	andq	$3, %rax
    10a8: 48 83 f8 03                  	cmpq	$3, %rax
    10ac: 0f 94 c0                     	sete	%al
    10af: 24 01                        	andb	$1, %al
    10b1: 0f b6 c0                     	movzbl	%al, %eax
    10b4: 48 8b 4d f0                  	movq	-16(%rbp), %rcx
    10b8: 48 83 e1 03                  	andq	$3, %rcx
    10bc: 48 83 f9 03                  	cmpq	$3, %rcx
    10c0: 0f 94 c1                     	sete	%cl
    10c3: 80 e1 01                     	andb	$1, %cl
    10c6: 0f b6 c9                     	movzbl	%cl, %ecx
    10c9: 09 c8                        	orl	%ecx, %eax
    10cb: 44 8a 5d ed                  	movb	-19(%rbp), %r11b
    10cf: 41 82                        	<unknown>
    10d1: e3 f0                        	jrcxz	0x10c3 <_fix_add+0xd3>
    10d3: 41 88 c3                     	movb	%al, %r11b
    10d6: 49 f7 d3                     	notq	%r11
    10d9: 44 88 5d ed                  	movb	%r11b, -19(%rbp)
    10dd: 88 45 ed                     	movb	%al, -19(%rbp)
    10e0: 48 8b 45 f8                  	movq	-8(%rbp), %rax
    10e4: 48 03 45 f0                  	addq	-16(%rbp), %rax
    10e8: 4c 8b 5d e0                  	movq	-32(%rbp), %r11
    10ec: 41 83 e3 00                  	andl	$0, %r11d
    10f0: 41 89 c3                     	movl	%eax, %r11d
    10f3: 49 f7 d3                     	notq	%r11
    10f6: 4c 89 5d e0                  	movq	%r11, -32(%rbp)
    10fa: 48 89 45 e0                  	movq	%rax, -32(%rbp)
    10fe: 48 b8 00 00 00 00 00 00 00 80	movabsq	$-9223372036854775808, %rax ## imm = 0x8000000000000000
    1108: 48 23 45 f8                  	andq	-8(%rbp), %rax
    110c: 48 b9 00 00 00 00 00 00 00 80	movabsq	$-9223372036854775808, %rcx ## imm = 0x8000000000000000
    1116: 48 23 4d f0                  	andq	-16(%rbp), %rcx
    111a: 48 09 c8                     	orq	%rcx, %rax
    111d: 48 83 f8 00                  	cmpq	$0, %rax
    1121: 0f 94 c0                     	sete	%al
    1124: 24 01                        	andb	$1, %al
    1126: 0f b6 c8                     	movzbl	%al, %ecx
    1129: 48 b8 00 00 00 00 00 00 00 80	movabsq	$-9223372036854775808, %rax ## imm = 0x8000000000000000
    1133: 48 23 45 e0                  	andq	-32(%rbp), %rax
    1137: 48 83 f8 00                  	cmpq	$0, %rax
    113b: 0f 95 c0                     	setne	%al
    113e: 24 01                        	andb	$1, %al
    1140: 0f b6 c0                     	movzbl	%al, %eax
    1143: 21 c1                        	andl	%eax, %ecx
    1145: 0f b6 45 ee                  	movzbl	-18(%rbp), %eax
    1149: 09 c8                        	orl	%ecx, %eax
    114b: 44 8a 5d ee                  	movb	-18(%rbp), %r11b
    114f: 41 82                        	<unknown>
    1151: e3 f0                        	jrcxz	0x1143 <_fix_add+0x153>
    1153: 41 88 c3                     	movb	%al, %r11b
    1156: 49 f7 d3                     	notq	%r11
    1159: 44 88 5d ee                  	movb	%r11b, -18(%rbp)
    115d: 88 45 ee                     	movb	%al, -18(%rbp)
    1160: 48 b8 00 00 00 00 00 00 00 80	movabsq	$-9223372036854775808, %rax ## imm = 0x8000000000000000
    116a: 48 23 45 f8                  	andq	-8(%rbp), %rax
    116e: 48 b9 00 00 00 00 00 00 00 80	movabsq	$-9223372036854775808, %rcx ## imm = 0x8000000000000000
    1178: 48 23 4d f0                  	andq	-16(%rbp), %rcx
    117c: 48 21 c8                     	andq	%rcx, %rax
    117f: 48 b9 00 00 00 00 00 00 00 80	movabsq	$-9223372036854775808, %rcx ## imm = 0x8000000000000000
    1189: 48 39 c8                     	cmpq	%rcx, %rax
    118c: 0f 94 c0                     	sete	%al
    118f: 24 01                        	andb	$1, %al
    1191: 0f b6 c8                     	movzbl	%al, %ecx
    1194: 48 b8 00 00 00 00 00 00 00 80	movabsq	$-9223372036854775808, %rax ## imm = 0x8000000000000000
    119e: 48 23 45 e0                  	andq	-32(%rbp), %rax
    11a2: 48 83 f8 00                  	cmpq	$0, %rax
    11a6: 0f 94 c0                     	sete	%al
    11a9: 24 01                        	andb	$1, %al
    11ab: 0f b6 c0                     	movzbl	%al, %eax
    11ae: 21 c1                        	andl	%eax, %ecx
    11b0: 0f b6 45 ed                  	movzbl	-19(%rbp), %eax
    11b4: 09 c8                        	orl	%ecx, %eax
    11b6: 44 8a 5d ed                  	movb	-19(%rbp), %r11b
    11ba: 41 82                        	<unknown>
    11bc: e3 f0                        	jrcxz	0x11ae <_fix_add+0x1be>
    11be: 41 88 c3                     	movb	%al, %r11b
    11c1: 49 f7 d3                     	notq	%r11
    11c4: 44 88 5d ed                  	movb	%r11b, -19(%rbp)
    11c8: 88 45 ed                     	movb	%al, -19(%rbp)
    11cb: 80 7d ee 00                  	cmpb	$0, -18(%rbp)
    11cf: 0f 95 c0                     	setne	%al
    11d2: 34 ff                        	xorb	$-1, %al
    11d4: 24 01                        	andb	$1, %al
    11d6: 0f b6 c8                     	movzbl	%al, %ecx
    11d9: 0f b6 45 ed                  	movzbl	-19(%rbp), %eax
    11dd: 21 c8                        	andl	%ecx, %eax
    11df: 44 8a 5d ed                  	movb	-19(%rbp), %r11b
    11e3: 41 82                        	<unknown>
    11e5: e3 f0                        	jrcxz	0x11d7 <_fix_add+0x1e7>
    11e7: 41 88 c3                     	movb	%al, %r11b
    11ea: 49 f7 d3                     	notq	%r11
    11ed: 44 88 5d ed                  	movb	%r11b, -19(%rbp)
    11f1: 88 45 ed                     	movb	%al, -19(%rbp)
    11f4: 0f b6 45 ef                  	movzbl	-17(%rbp), %eax
    11f8: 0f b6 4d ef                  	movzbl	-17(%rbp), %ecx
    11fc: c1 e1 01                     	shll	$1, %ecx
    11ff: 09 c8                        	orl	%ecx, %eax
    1201: 48 98                        	cltq
    1203: 48 83 e0 01                  	andq	$1, %rax
    1207: 0f b6 4d ee                  	movzbl	-18(%rbp), %ecx
    120b: 80 7d ef 00                  	cmpb	$0, -17(%rbp)
    120f: 0f 95 c2                     	setne	%dl
    1212: 80 f2 ff                     	xorb	$-1, %dl
    1215: 80 e2 01                     	andb	$1, %dl
    1218: 0f b6 d2                     	movzbl	%dl, %edx
    121b: 21 d1                        	andl	%edx, %ecx
    121d: 0f b6 55 ee                  	movzbl	-18(%rbp), %edx
    1221: 80 7d ef 00                  	cmpb	$0, -17(%rbp)
    1225: 40 0f 95 c6                  	setne	%sil
    1229: 40 80 f6 ff                  	xorb	$-1, %sil
    122d: 40 80 e6 01                  	andb	$1, %sil
    1231: 40 0f b6 f6                  	movzbl	%sil, %esi
    1235: 21 f2                        	andl	%esi, %edx
    1237: c1 e2 01                     	shll	$1, %edx
    123a: 09 d1                        	orl	%edx, %ecx
    123c: 48 63 c9                     	movslq	%ecx, %rcx
    123f: 48 83 e1 02                  	andq	$2, %rcx
    1243: 48 09 c8                     	orq	%rcx, %rax
    1246: 0f b6 4d ed                  	movzbl	-19(%rbp), %ecx
    124a: 80 7d ef 00                  	cmpb	$0, -17(%rbp)
    124e: 0f 95 c2                     	setne	%dl
    1251: 80 f2 ff                     	xorb	$-1, %dl
    1254: 80 e2 01                     	andb	$1, %dl
    1257: 0f b6 d2                     	movzbl	%dl, %edx
    125a: 21 d1                        	andl	%edx, %ecx
    125c: 0f b6 55 ed                  	movzbl	-19(%rbp), %edx
    1260: 80 7d ef 00                  	cmpb	$0, -17(%rbp)
    1264: 40 0f 95 c6                  	setne	%sil
    1268: 40 80 f6 ff                  	xorb	$-1, %sil
    126c: 40 80 e6 01                  	andb	$1, %sil
    1270: 40 0f b6 f6                  	movzbl	%sil, %esi
    1274: 21 f2                        	andl	%esi, %edx
    1276: c1 e2 01                     	shll	$1, %edx
    1279: 09 d1                        	orl	%edx, %ecx
    127b: 48 63 c9                     	movslq	%ecx, %rcx
    127e: 48 83 e1 03                  	andq	$3, %rcx
    1282: 48 09 c8                     	orq	%rcx, %rax
    1285: 48 8b 4d e0                  	movq	-32(%rbp), %rcx
    1289: 48 83 e1 fc                  	andq	$-4, %rcx
    128d: 48 09 c8                     	orq	%rcx, %rax
    1290: 5d                           	popq	%rbp
    1291: c3                           	retq
    1292: 66 2e 0f 1f 84 00 00 00 00 00	nopw	%cs:(%rax,%rax)
    129c: 0f 1f 40 00                  	nopl	(%rax)

00000000000012a0 <_fix_div>:
    12a0: 55                           	pushq	%rbp
    12a1: 48 89 e5                     	movq	%rsp, %rbp
    12a4: 48 83 ec 40                  	subq	$64, %rsp
    12a8: 4c 8b 5d f8                  	movq	-8(%rbp), %r11
    12ac: 41 83 e3 00                  	andl	$0, %r11d
    12b0: 41 89 fb                     	movl	%edi, %r11d
    12b3: 49 f7 d3                     	notq	%r11
    12b6: 4c 89 5d f8                  	movq	%r11, -8(%rbp)
    12ba: 48 89 7d f8                  	movq	%rdi, -8(%rbp)
    12be: 4c 8b 5d f0                  	movq	-16(%rbp), %r11
    12c2: 41 83 e3 00                  	andl	$0, %r11d
    12c6: 41 89 f3                     	movl	%esi, %r11d
    12c9: 49 f7 d3                     	notq	%r11
    12cc: 4c 89 5d f0                  	movq	%r11, -16(%rbp)
    12d0: 48 89 75 f0                  	movq	%rsi, -16(%rbp)
    12d4: c6 45 ef 00                  	movb	$0, -17(%rbp)
    12d8: 48 8b 7d f8                  	movq	-8(%rbp), %rdi
    12dc: 48 8b 75 f0                  	movq	-16(%rbp), %rsi
    12e0: 48 8d 55 ef                  	leaq	-17(%rbp), %rdx
    12e4: e8 00 00 00 00               	callq	0x12e9 <_fix_div+0x49>
    12e9: 4c 8b 5d e0                  	movq	-32(%rbp), %r11
    12ed: 41 83 e3 00                  	andl	$0, %r11d
    12f1: 41 89 c3                     	movl	%eax, %r11d
    12f4: 49 f7 d3                     	notq	%r11
    12f7: 4c 89 5d e0                  	movq	%r11, -32(%rbp)
    12fb: 48 89 45 e0                  	movq	%rax, -32(%rbp)
    12ff: 48 83 7d f0 00               	cmpq	$0, -16(%rbp)
    1304: 0f 94 c0                     	sete	%al
    1307: 24 01                        	andb	$1, %al
    1309: 0f b6 c0                     	movzbl	%al, %eax
    130c: 44 8a 5d df                  	movb	-33(%rbp), %r11b
    1310: 41 82                        	<unknown>
    1312: e3 f0                        	jrcxz	0x1304 <_fix_div+0x64>
    1314: 41 88 c3                     	movb	%al, %r11b
    1317: 49 f7 d3                     	notq	%r11
    131a: 44 88 5d df                  	movb	%r11b, -33(%rbp)
    131e: 88 45 df                     	movb	%al, -33(%rbp)
    1321: 48 8b 45 f8                  	movq	-8(%rbp), %rax
    1325: 48 83 e0 03                  	andq	$3, %rax
    1329: 48 83 f8 03                  	cmpq	$3, %rax
    132d: 0f 94 c0                     	sete	%al
    1330: 24 01                        	andb	$1, %al
    1332: 0f b6 c0                     	movzbl	%al, %eax
    1335: 48 8b 4d f8                  	movq	-8(%rbp), %rcx
    1339: 48 83 e1 03                  	andq	$3, %rcx
    133d: 48 83 f9 02                  	cmpq	$2, %rcx
    1341: 0f 94 c1                     	sete	%cl
    1344: 80 e1 01                     	andb	$1, %cl
    1347: 0f b6 c9                     	movzbl	%cl, %ecx
    134a: 09 c8                        	orl	%ecx, %eax
    134c: 44 8a 5d de                  	movb	-34(%rbp), %r11b
    1350: 41 82                        	<unknown>
    1352: e3 f0                        	jrcxz	0x1344 <_fix_div+0xa4>
    1354: 41 88 c3                     	movb	%al, %r11b
    1357: 49 f7 d3                     	notq	%r11
    135a: 44 88 5d de                  	movb	%r11b, -34(%rbp)
    135e: 88 45 de                     	movb	%al, -34(%rbp)
    1361: 48 8b 45 f0                  	movq	-16(%rbp), %rax
    1365: 48 83 e0 03                  	andq	$3, %rax
    1369: 48 83 f8 03                  	cmpq	$3, %rax
    136d: 0f 94 c0                     	sete	%al
    1370: 24 01                        	andb	$1, %al
    1372: 0f b6 c0                     	movzbl	%al, %eax
    1375: 48 8b 4d f0                  	movq	-16(%rbp), %rcx
    1379: 48 83 e1 03                  	andq	$3, %rcx
    137d: 48 83 f9 02                  	cmpq	$2, %rcx
    1381: 0f 94 c1                     	sete	%cl
    1384: 80 e1 01                     	andb	$1, %cl
    1387: 0f b6 c9                     	movzbl	%cl, %ecx
    138a: 09 c8                        	orl	%ecx, %eax
    138c: 44 8a 5d dd                  	movb	-35(%rbp), %r11b
    1390: 41 82                        	<unknown>
    1392: e3 f0                        	jrcxz	0x1384 <_fix_div+0xe4>
    1394: 41 88 c3                     	movb	%al, %r11b
    1397: 49 f7 d3                     	notq	%r11
    139a: 44 88 5d dd                  	movb	%r11b, -35(%rbp)
    139e: 88 45 dd                     	movb	%al, -35(%rbp)
    13a1: 48 8b 45 f8                  	movq	-8(%rbp), %rax
    13a5: 48 83 e0 03                  	andq	$3, %rax
    13a9: 48 83 f8 03                  	cmpq	$3, %rax
    13ad: 0f 94 c0                     	sete	%al
    13b0: 24 01                        	andb	$1, %al
    13b2: 0f b6 c0                     	movzbl	%al, %eax
    13b5: 48 b9 00 00 00 00 00 00 00 80	movabsq	$-9223372036854775808, %rcx ## imm = 0x8000000000000000
    13bf: 48 23 4d f8                  	andq	-8(%rbp), %rcx
    13c3: 48 ba 00 00 00 00 00 00 00 80	movabsq	$-9223372036854775808, %rdx ## imm = 0x8000000000000000
    13cd: 48 39 d1                     	cmpq	%rdx, %rcx
    13d0: 0f 94 c1                     	sete	%cl
    13d3: 80 e1 01                     	andb	$1, %cl
    13d6: 0f b6 c9                     	movzbl	%cl, %ecx
    13d9: 80 7d de 00                  	cmpb	$0, -34(%rbp)
    13dd: 0f 95 c2                     	setne	%dl
    13e0: 80 f2 ff                     	xorb	$-1, %dl
    13e3: 80 e2 01                     	andb	$1, %dl
    13e6: 0f b6 d2                     	movzbl	%dl, %edx
    13e9: 21 d1                        	andl	%edx, %ecx
    13eb: 09 c8                        	orl	%ecx, %eax
    13ed: 44 8a 5d dc                  	movb	-36(%rbp), %r11b
    13f1: 41 82                        	<unknown>
    13f3: e3 f0                        	jrcxz	0x13e5 <_fix_div+0x145>
    13f5: 41 88 c3                     	movb	%al, %r11b
    13f8: 49 f7 d3                     	notq	%r11
    13fb: 44 88 5d dc                  	movb	%r11b, -36(%rbp)
    13ff: 88 45 dc                     	movb	%al, -36(%rbp)
    1402: 48 8b 45 f0                  	movq	-16(%rbp), %rax
    1406: 48 83 e0 03                  	andq	$3, %rax
    140a: 48 83 f8 03                  	cmpq	$3, %rax
    140e: 0f 94 c0                     	sete	%al
    1411: 24 01                        	andb	$1, %al
    1413: 0f b6 c0                     	movzbl	%al, %eax
    1416: 48 b9 00 00 00 00 00 00 00 80	movabsq	$-9223372036854775808, %rcx ## imm = 0x8000000000000000
    1420: 48 23 4d f0                  	andq	-16(%rbp), %rcx
    1424: 48 ba 00 00 00 00 00 00 00 80	movabsq	$-9223372036854775808, %rdx ## imm = 0x8000000000000000
    142e: 48 39 d1                     	cmpq	%rdx, %rcx
    1431: 0f 94 c1                     	sete	%cl
    1434: 80 e1 01                     	andb	$1, %cl
    1437: 0f b6 c9                     	movzbl	%cl, %ecx
    143a: 80 7d dd 00                  	cmpb	$0, -35(%rbp)
    143e: 0f 95 c2                     	setne	%dl
    1441: 80 f2 ff                     	xorb	$-1, %dl
    1444: 80 e2 01                     	andb	$1, %dl
    1447: 0f b6 d2                     	movzbl	%dl, %edx
    144a: 21 d1                        	andl	%edx, %ecx
    144c: 09 c8                        	orl	%ecx, %eax
    144e: 44 8a 5d db                  	movb	-37(%rbp), %r11b
    1452: 41 82                        	<unknown>
    1454: e3 f0                        	jrcxz	0x1446 <_fix_div+0x1a6>
    1456: 41 88 c3                     	movb	%al, %r11b
    1459: 49 f7 d3                     	notq	%r11
    145c: 44 88 5d db                  	movb	%r11b, -37(%rbp)
    1460: 88 45 db                     	movb	%al, -37(%rbp)
    1463: 48 8b 45 f8                  	movq	-8(%rbp), %rax
    1467: 48 83 e0 03                  	andq	$3, %rax
    146b: 48 83 f8 01                  	cmpq	$1, %rax
    146f: 0f 94 c0                     	sete	%al
    1472: 24 01                        	andb	$1, %al
    1474: 0f b6 c0                     	movzbl	%al, %eax
    1477: 48 8b 4d f0                  	movq	-16(%rbp), %rcx
    147b: 48 83 e1 03                  	andq	$3, %rcx
    147f: 48 83 f9 01                  	cmpq	$1, %rcx
    1483: 0f 94 c1                     	sete	%cl
    1486: 80 e1 01                     	andb	$1, %cl
    1489: 0f b6 c9                     	movzbl	%cl, %ecx
    148c: 09 c8                        	orl	%ecx, %eax
    148e: 48 83 7d f8 00               	cmpq	$0, -8(%rbp)
    1493: 0f 94 c1                     	sete	%cl
    1496: 80 e1 01                     	andb	$1, %cl
    1499: 0f b6 c9                     	movzbl	%cl, %ecx
    149c: 48 83 7d f0 00               	cmpq	$0, -16(%rbp)
    14a1: 0f 94 c2                     	sete	%dl
    14a4: 80 e2 01                     	andb	$1, %dl
    14a7: 0f b6 d2                     	movzbl	%dl, %edx
    14aa: 21 d1                        	andl	%edx, %ecx
    14ac: 09 c8                        	orl	%ecx, %eax
    14ae: 44 8a 5d da                  	movb	-38(%rbp), %r11b
    14b2: 41 82                        	<unknown>
    14b4: e3 f0                        	jrcxz	0x14a6 <_fix_div+0x206>
    14b6: 41 88 c3                     	movb	%al, %r11b
    14b9: 49 f7 d3                     	notq	%r11
    14bc: 44 88 5d da                  	movb	%r11b, -38(%rbp)
    14c0: 88 45 da                     	movb	%al, -38(%rbp)
    14c3: 0f b6 45 ef                  	movzbl	-17(%rbp), %eax
    14c7: 0f b6 4d de                  	movzbl	-34(%rbp), %ecx
    14cb: 09 c8                        	orl	%ecx, %eax
    14cd: 80 7d da 00                  	cmpb	$0, -38(%rbp)
    14d1: 0f 95 c1                     	setne	%cl
    14d4: 80 f1 ff                     	xorb	$-1, %cl
    14d7: 80 e1 01                     	andb	$1, %cl
    14da: 0f b6 c9                     	movzbl	%cl, %ecx
    14dd: 21 c8                        	andl	%ecx, %eax
    14df: 44 8a 5d ef                  	movb	-17(%rbp), %r11b
    14e3: 41 82                        	<unknown>
    14e5: e3 f0                        	jrcxz	0x14d7 <_fix_div+0x237>
    14e7: 41 88 c3                     	movb	%al, %r11b
    14ea: 49 f7 d3                     	notq	%r11
    14ed: 44 88 5d ef                  	movb	%r11b, -17(%rbp)
    14f1: 88 45 ef                     	movb	%al, -17(%rbp)
    14f4: 0f b6 45 ef                  	movzbl	-17(%rbp), %eax
    14f8: 0f b6 4d dc                  	movzbl	-36(%rbp), %ecx
    14fc: 0f b6 55 db                  	movzbl	-37(%rbp), %edx
    1500: 31 d1                        	xorl	%edx, %ecx
    1502: 83 f9 00                     	cmpl	$0, %ecx
    1505: 0f 95 c1                     	setne	%cl
    1508: 80 f1 ff                     	xorb	$-1, %cl
    150b: 80 e1 01                     	andb	$1, %cl
    150e: 0f b6 c9                     	movzbl	%cl, %ecx
    1511: 21 c8                        	andl	%ecx, %eax
    1513: 0f b6 4d df                  	movzbl	-33(%rbp), %ecx
    1517: 80 7d dc 00                  	cmpb	$0, -36(%rbp)
    151b: 0f 95 c2                     	setne	%dl
    151e: 80 f2 ff                     	xorb	$-1, %dl
    1521: 80 e2 01                     	andb	$1, %dl
    1524: 0f b6 d2                     	movzbl	%dl, %edx
    1527: 21 d1                        	andl	%edx, %ecx
    1529: 09 c8                        	orl	%ecx, %eax
    152b: 44 8a 5d d9                  	movb	-39(%rbp), %r11b
    152f: 41 82                        	<unknown>
    1531: e3 f0                        	jrcxz	0x1523 <_fix_div+0x283>
    1533: 41 88 c3                     	movb	%al, %r11b
    1536: 49 f7 d3                     	notq	%r11
    1539: 44 88 5d d9                  	movb	%r11b, -39(%rbp)
    153d: 88 45 d9                     	movb	%al, -39(%rbp)
    1540: 0f b6 45 ef                  	movzbl	-17(%rbp), %eax
    1544: 0f b6 4d dc                  	movzbl	-36(%rbp), %ecx
    1548: 0f b6 55 db                  	movzbl	-37(%rbp), %edx
    154c: 31 d1                        	xorl	%edx, %ecx
    154e: 21 c8                        	andl	%ecx, %eax
    1550: 0f b6 4d df                  	movzbl	-33(%rbp), %ecx
    1554: 0f b6 55 dc                  	movzbl	-36(%rbp), %edx
    1558: 21 d1                        	andl	%edx, %ecx
    155a: 09 c8                        	orl	%ecx, %eax
    155c: 44 8a 5d d8                  	movb	-40(%rbp), %r11b
    1560: 41 82                        	<unknown>
    1562: e3 f0                        	jrcxz	0x1554 <_fix_div+0x2b4>
    1564: 41 88 c3                     	movb	%al, %r11b
    1567: 49 f7 d3                     	notq	%r11
    156a: 44 88 5d d8                  	movb	%r11b, -40(%rbp)
    156e: 88 45 d8                     	movb	%al, -40(%rbp)
    1571: 80 7d de 00                  	cmpb	$0, -34(%rbp)
    1575: 0f 95 c0                     	setne	%al
    1578: 34 ff                        	xorb	$-1, %al
    157a: 24 01                        	andb	$1, %al
    157c: 0f b6 c0                     	movzbl	%al, %eax
    157f: 0f b6 4d dd                  	movzbl	-35(%rbp), %ecx
    1583: 21 c8                        	andl	%ecx, %eax
    1585: 44 8a 5d d7                  	movb	-41(%rbp), %r11b
    1589: 41 82                        	<unknown>
    158b: e3 f0                        	jrcxz	0x157d <_fix_div+0x2dd>
    158d: 41 88 c3                     	movb	%al, %r11b
    1590: 49 f7 d3                     	notq	%r11
    1593: 44 88 5d d7                  	movb	%r11b, -41(%rbp)
    1597: 88 45 d7                     	movb	%al, -41(%rbp)
    159a: 0f b6 45 da                  	movzbl	-38(%rbp), %eax
    159e: 0f b6 4d da                  	movzbl	-38(%rbp), %ecx
    15a2: c1 e1 01                     	shll	$1, %ecx
    15a5: 09 c8                        	orl	%ecx, %eax
    15a7: 48 98                        	cltq
    15a9: 48 83 e0 01                  	andq	$1, %rax
    15ad: 0f b6 4d d9                  	movzbl	-39(%rbp), %ecx
    15b1: 80 7d da 00                  	cmpb	$0, -38(%rbp)
    15b5: 0f 95 c2                     	setne	%dl
    15b8: 80 f2 ff                     	xorb	$-1, %dl
    15bb: 80 e2 01                     	andb	$1, %dl
    15be: 0f b6 d2                     	movzbl	%dl, %edx
    15c1: 21 d1                        	andl	%edx, %ecx
    15c3: 80 7d d7 00                  	cmpb	$0, -41(%rbp)
    15c7: 0f 95 c2                     	setne	%dl
    15ca: 80 f2 ff                     	xorb	$-1, %dl
    15cd: 80 e2 01                     	andb	$1, %dl
    15d0: 0f b6 d2                     	movzbl	%dl, %edx
    15d3: 21 d1                        	andl	%edx, %ecx
    15d5: 0f b6 55 d9                  	movzbl	-39(%rbp), %edx
    15d9: 80 7d da 00                  	cmpb	$0, -38(%rbp)
    15dd: 40 0f 95 c6                  	setne	%sil
    15e1: 40 80 f6 ff                  	xorb	$-1, %sil
    15e5: 40 80 e6 01                  	andb	$1, %sil
    15e9: 40 0f b6 f6                  	movzbl	%sil, %esi
    15ed: 21 f2                        	andl	%esi, %edx
    15ef: 80 7d d7 00                  	cmpb	$0, -41(%rbp)
    15f3: 40 0f 95 c6                  	setne	%sil
    15f7: 40 80 f6 ff                  	xorb	$-1, %sil
    15fb: 40 80 e6 01                  	andb	$1, %sil
    15ff: 40 0f b6 f6                  	movzbl	%sil, %esi
    1603: 21 f2                        	andl	%esi, %edx
    1605: c1 e2 01                     	shll	$1, %edx
    1608: 09 d1                        	orl	%edx, %ecx
    160a: 48 63 c9                     	movslq	%ecx, %rcx
    160d: 48 83 e1 02                  	andq	$2, %rcx
    1611: 48 09 c8                     	orq	%rcx, %rax
    1614: 0f b6 4d d8                  	movzbl	-40(%rbp), %ecx
    1618: 80 7d da 00                  	cmpb	$0, -38(%rbp)
    161c: 0f 95 c2                     	setne	%dl
    161f: 80 f2 ff                     	xorb	$-1, %dl
    1622: 80 e2 01                     	andb	$1, %dl
    1625: 0f b6 d2                     	movzbl	%dl, %edx
    1628: 21 d1                        	andl	%edx, %ecx
    162a: 80 7d d7 00                  	cmpb	$0, -41(%rbp)
    162e: 0f 95 c2                     	setne	%dl
    1631: 80 f2 ff                     	xorb	$-1, %dl
    1634: 80 e2 01                     	andb	$1, %dl
    1637: 0f b6 d2                     	movzbl	%dl, %edx
    163a: 21 d1                        	andl	%edx, %ecx
    163c: 0f b6 55 d8                  	movzbl	-40(%rbp), %edx
    1640: 80 7d da 00                  	cmpb	$0, -38(%rbp)
    1644: 40 0f 95 c6                  	setne	%sil
    1648: 40 80 f6 ff                  	xorb	$-1, %sil
    164c: 40 80 e6 01                  	andb	$1, %sil
    1650: 40 0f b6 f6                  	movzbl	%sil, %esi
    1654: 21 f2                        	andl	%esi, %edx
    1656: 80 7d d7 00                  	cmpb	$0, -41(%rbp)
    165a: 40 0f 95 c6                  	setne	%sil
    165e: 40 80 f6 ff                  	xorb	$-1, %sil
    1662: 40 80 e6 01                  	andb	$1, %sil
    1666: 40 0f b6 f6                  	movzbl	%sil, %esi
    166a: 21 f2                        	andl	%esi, %edx
    166c: c1 e2 01                     	shll	$1, %edx
    166f: 09 d1                        	orl	%edx, %ecx
    1671: 48 63 c9                     	movslq	%ecx, %rcx
    1674: 48 83 e1 03                  	andq	$3, %rcx
    1678: 48 09 c8                     	orq	%rcx, %rax
    167b: 48 c7 45 c8 01 00 00 00      	movq	$1, -56(%rbp)
    1683: 80 7d d7 00                  	cmpb	$0, -41(%rbp)
    1687: 0f 95 c1                     	setne	%cl
    168a: 80 f1 ff                     	xorb	$-1, %cl
    168d: 80 f1 ff                     	xorb	$-1, %cl
    1690: 80 f1 ff                     	xorb	$-1, %cl
    1693: 80 e1 01                     	andb	$1, %cl
    1696: 0f b6 c9                     	movzbl	%cl, %ecx
    1699: 48 63 c9                     	movslq	%ecx, %rcx
    169c: 48 33 4d c8                  	xorq	-56(%rbp), %rcx
    16a0: 48 2b 4d c8                  	subq	-56(%rbp), %rcx
    16a4: 4c 8b 5d c0                  	movq	-64(%rbp), %r11
    16a8: 41 83 e3 00                  	andl	$0, %r11d
    16ac: 41 89 cb                     	movl	%ecx, %r11d
    16af: 49 f7 d3                     	notq	%r11
    16b2: 4c 89 5d c0                  	movq	%r11, -64(%rbp)
    16b6: 48 89 4d c0                  	movq	%rcx, -64(%rbp)
    16ba: 48 8b 4d c0                  	movq	-64(%rbp), %rcx
    16be: 48 8b 55 e0                  	movq	-32(%rbp), %rdx
    16c2: 48 83 e2 fc                  	andq	$-4, %rdx
    16c6: 48 21 d1                     	andq	%rdx, %rcx
    16c9: 48 09 c8                     	orq	%rcx, %rax
    16cc: 48 83 c4 40                  	addq	$64, %rsp
    16d0: 5d                           	popq	%rbp
    16d1: c3                           	retq
    16d2: 66 2e 0f 1f 84 00 00 00 00 00	nopw	%cs:(%rax,%rax)
    16dc: 0f 1f 40 00                  	nopl	(%rax)

00000000000016e0 <_fix_div_64>:
    16e0: 55                           	pushq	%rbp
    16e1: 48 89 e5                     	movq	%rsp, %rbp
    16e4: 48 81 ec 40 01 00 00         	subq	$320, %rsp              ## imm = 0x140
    16eb: 48 89 7d f8                  	movq	%rdi, -8(%rbp)
    16ef: 48 89 75 f0                  	movq	%rsi, -16(%rbp)
    16f3: 48 89 55 e8                  	movq	%rdx, -24(%rbp)
    16f7: 48 b8 00 00 00 00 00 00 00 80	movabsq	$-9223372036854775808, %rax ## imm = 0x8000000000000000
    1701: 48 23 45 f8                  	andq	-8(%rbp), %rax
    1705: 48 83 f8 00                  	cmpq	$0, %rax
    1709: 0f 95 c0                     	setne	%al
    170c: 34 ff                        	xorb	$-1, %al
    170e: 24 01                        	andb	$1, %al
    1710: 0f b6 c0                     	movzbl	%al, %eax
    1713: 88 45 e7                     	movb	%al, -25(%rbp)
    1716: 48 b8 00 00 00 00 00 00 00 80	movabsq	$-9223372036854775808, %rax ## imm = 0x8000000000000000
    1720: 48 23 45 f0                  	andq	-16(%rbp), %rax
    1724: 48 83 f8 00                  	cmpq	$0, %rax
    1728: 0f 95 c0                     	setne	%al
    172b: 34 ff                        	xorb	$-1, %al
    172d: 24 01                        	andb	$1, %al
    172f: 0f b6 c0                     	movzbl	%al, %eax
    1732: 88 45 e6                     	movb	%al, -26(%rbp)
    1735: 48 c7 45 d0 01 00 00 00      	movq	$1, -48(%rbp)
    173d: 80 7d e7 00                  	cmpb	$0, -25(%rbp)
    1741: 0f 95 c0                     	setne	%al
    1744: 34 ff                        	xorb	$-1, %al
    1746: 34 ff                        	xorb	$-1, %al
    1748: 24 01                        	andb	$1, %al
    174a: 0f b6 c0                     	movzbl	%al, %eax
    174d: 48 98                        	cltq
    174f: 48 33 45 d0                  	xorq	-48(%rbp), %rax
    1753: 48 2b 45 d0                  	subq	-48(%rbp), %rax
    1757: 48 89 45 c8                  	movq	%rax, -56(%rbp)
    175b: 48 8b 45 c8                  	movq	-56(%rbp), %rax
    175f: 48 23 45 f8                  	andq	-8(%rbp), %rax
    1763: 48 c7 45 c0 01 00 00 00      	movq	$1, -64(%rbp)
    176b: 80 7d e7 00                  	cmpb	$0, -25(%rbp)
    176f: 0f 95 c1                     	setne	%cl
    1772: 80 f1 ff                     	xorb	$-1, %cl
    1775: 80 f1 ff                     	xorb	$-1, %cl
    1778: 80 f1 ff                     	xorb	$-1, %cl
    177b: 80 e1 01                     	andb	$1, %cl
    177e: 0f b6 c9                     	movzbl	%cl, %ecx
    1781: 48 63 c9                     	movslq	%ecx, %rcx
    1784: 48 33 4d c0                  	xorq	-64(%rbp), %rcx
    1788: 48 2b 4d c0                  	subq	-64(%rbp), %rcx
    178c: 48 89 4d b8                  	movq	%rcx, -72(%rbp)
    1790: 48 8b 4d b8                  	movq	-72(%rbp), %rcx
    1794: 48 8b 55 f8                  	movq	-8(%rbp), %rdx
    1798: 48 83 f2 ff                  	xorq	$-1, %rdx
    179c: 48 83 c2 01                  	addq	$1, %rdx
    17a0: 48 21 d1                     	andq	%rdx, %rcx
    17a3: 48 09 c8                     	orq	%rcx, %rax
    17a6: 48 89 45 d8                  	movq	%rax, -40(%rbp)
    17aa: 48 c7 45 a8 01 00 00 00      	movq	$1, -88(%rbp)
    17b2: 80 7d e6 00                  	cmpb	$0, -26(%rbp)
    17b6: 0f 95 c0                     	setne	%al
    17b9: 34 ff                        	xorb	$-1, %al
    17bb: 34 ff                        	xorb	$-1, %al
    17bd: 24 01                        	andb	$1, %al
    17bf: 0f b6 c0                     	movzbl	%al, %eax
    17c2: 48 98                        	cltq
    17c4: 48 33 45 a8                  	xorq	-88(%rbp), %rax
    17c8: 48 2b 45 a8                  	subq	-88(%rbp), %rax
    17cc: 48 89 45 a0                  	movq	%rax, -96(%rbp)
    17d0: 48 8b 45 a0                  	movq	-96(%rbp), %rax
    17d4: 48 23 45 f0                  	andq	-16(%rbp), %rax
    17d8: 48 c7 45 98 01 00 00 00      	movq	$1, -104(%rbp)
    17e0: 80 7d e6 00                  	cmpb	$0, -26(%rbp)
    17e4: 0f 95 c1                     	setne	%cl
    17e7: 80 f1 ff                     	xorb	$-1, %cl
    17ea: 80 f1 ff                     	xorb	$-1, %cl
    17ed: 80 f1 ff                     	xorb	$-1, %cl
    17f0: 80 e1 01                     	andb	$1, %cl
    17f3: 0f b6 c9                     	movzbl	%cl, %ecx
    17f6: 48 63 c9                     	movslq	%ecx, %rcx
    17f9: 48 33 4d 98                  	xorq	-104(%rbp), %rcx
    17fd: 48 2b 4d 98                  	subq	-104(%rbp), %rcx
    1801: 48 89 4d 90                  	movq	%rcx, -112(%rbp)
    1805: 48 8b 4d 90                  	movq	-112(%rbp), %rcx
    1809: 48 8b 55 f0                  	movq	-16(%rbp), %rdx
    180d: 48 83 f2 ff                  	xorq	$-1, %rdx
    1811: 48 83 c2 01                  	addq	$1, %rdx
    1815: 48 21 d1                     	andq	%rdx, %rcx
    1818: 48 09 c8                     	orq	%rcx, %rax
    181b: 48 89 45 b0                  	movq	%rax, -80(%rbp)
    181f: 48 8b 7d d8                  	movq	-40(%rbp), %rdi
    1823: e8 00 00 00 00               	callq	0x1828 <_fix_div_64+0x148>
    1828: 88 45 8f                     	movb	%al, -113(%rbp)
    182b: 48 8b 7d b0                  	movq	-80(%rbp), %rdi
    182f: e8 00 00 00 00               	callq	0x1834 <_fix_div_64+0x154>
    1834: 88 45 8e                     	movb	%al, -114(%rbp)
    1837: 0f b6 45 8f                  	movzbl	-113(%rbp), %eax
    183b: 0f b6 4d 8e                  	movzbl	-114(%rbp), %ecx
    183f: 29 c8                        	subl	%ecx, %eax
    1841: 83 c0 01                     	addl	$1, %eax
    1844: 88 45 8d                     	movb	%al, -115(%rbp)
    1847: 48 8b 45 d8                  	movq	-40(%rbp), %rax
    184b: 0f b6 55 8f                  	movzbl	-113(%rbp), %edx
    184f: b9 3e 00 00 00               	movl	$62, %ecx
    1854: 29 d1                        	subl	%edx, %ecx
    1856: 89 c9                        	movl	%ecx, %ecx
    1858: 48 d3 e0                     	shlq	%cl, %rax
    185b: 48 89 45 80                  	movq	%rax, -128(%rbp)
    185f: 48 8b 45 b0                  	movq	-80(%rbp), %rax
    1863: 0f b6 55 8e                  	movzbl	-114(%rbp), %edx
    1867: b9 3f 00 00 00               	movl	$63, %ecx
    186c: 29 d1                        	subl	%edx, %ecx
    186e: 89 c9                        	movl	%ecx, %ecx
    1870: 48 d3 e0                     	shlq	%cl, %rax
    1873: 48 89 85 78 ff ff ff         	movq	%rax, -136(%rbp)
    187a: 48 c7 85 70 ff ff ff 00 00 00 00     	movq	$0, -144(%rbp)
    1885: 48 c7 85 68 ff ff ff 01 00 00 00     	movq	$1, -152(%rbp)
    1890: 48 b8 00 00 00 00 00 00 00 80	movabsq	$-9223372036854775808, %rax ## imm = 0x8000000000000000
    189a: 48 39 45 d8                  	cmpq	%rax, -40(%rbp)
    189e: 0f 94 c0                     	sete	%al
    18a1: 34 ff                        	xorb	$-1, %al
    18a3: 34 ff                        	xorb	$-1, %al
    18a5: 24 01                        	andb	$1, %al
    18a7: 0f b6 c0                     	movzbl	%al, %eax
    18aa: 48 98                        	cltq
    18ac: 48 33 85 68 ff ff ff         	xorq	-152(%rbp), %rax
    18b3: 48 2b 85 68 ff ff ff         	subq	-152(%rbp), %rax
    18ba: 48 89 85 60 ff ff ff         	movq	%rax, -160(%rbp)
    18c1: 48 8b 85 60 ff ff ff         	movq	-160(%rbp), %rax
    18c8: 48 8b 4d d8                  	movq	-40(%rbp), %rcx
    18cc: 48 c1 e9 01                  	shrq	$1, %rcx
    18d0: 48 21 c8                     	andq	%rcx, %rax
    18d3: 48 c7 85 58 ff ff ff 01 00 00 00     	movq	$1, -168(%rbp)
    18de: 48 b9 00 00 00 00 00 00 00 80	movabsq	$-9223372036854775808, %rcx ## imm = 0x8000000000000000
    18e8: 48 39 4d d8                  	cmpq	%rcx, -40(%rbp)
    18ec: 0f 95 c1                     	setne	%cl
    18ef: 80 f1 ff                     	xorb	$-1, %cl
    18f2: 80 f1 ff                     	xorb	$-1, %cl
    18f5: 80 e1 01                     	andb	$1, %cl
    18f8: 0f b6 c9                     	movzbl	%cl, %ecx
    18fb: 48 63 c9                     	movslq	%ecx, %rcx
    18fe: 48 33 8d 58 ff ff ff         	xorq	-168(%rbp), %rcx
    1905: 48 2b 8d 58 ff ff ff         	subq	-168(%rbp), %rcx
    190c: 48 89 8d 50 ff ff ff         	movq	%rcx, -176(%rbp)
    1913: 48 8b 8d 50 ff ff ff         	movq	-176(%rbp), %rcx
    191a: 48 23 4d 80                  	andq	-128(%rbp), %rcx
    191e: 48 09 c8                     	orq	%rcx, %rax
    1921: 48 89 45 80                  	movq	%rax, -128(%rbp)
    1925: c7 85 4c ff ff ff 00 00 00 00	movl	$0, -180(%rbp)
    192f: c7 85 4c ff ff ff 3f 00 00 00	movl	$63, -180(%rbp)
    1939: 83 bd 4c ff ff ff 00         	cmpl	$0, -180(%rbp)
    1940: 0f 8c 51 01 00 00            	jl	0x1a97 <_fix_div_64+0x3b7>
    1946: 48 8b 45 80                  	movq	-128(%rbp), %rax
    194a: 48 3b 85 78 ff ff ff         	cmpq	-136(%rbp), %rax
    1951: 0f 93 c0                     	setae	%al
    1954: 24 01                        	andb	$1, %al
    1956: 0f b6 c0                     	movzbl	%al, %eax
    1959: 48 83 bd 78 ff ff ff 00      	cmpq	$0, -136(%rbp)
    1961: 0f 95 c1                     	setne	%cl
    1964: 80 e1 01                     	andb	$1, %cl
    1967: 0f b6 c9                     	movzbl	%cl, %ecx
    196a: 21 c8                        	andl	%ecx, %eax
    196c: 88 85 4b ff ff ff            	movb	%al, -181(%rbp)
    1972: 48 c7 85 40 ff ff ff 01 00 00 00     	movq	$1, -192(%rbp)
    197d: 80 bd 4b ff ff ff 00         	cmpb	$0, -181(%rbp)
    1984: 0f 95 c0                     	setne	%al
    1987: 34 ff                        	xorb	$-1, %al
    1989: 34 ff                        	xorb	$-1, %al
    198b: 24 01                        	andb	$1, %al
    198d: 0f b6 c0                     	movzbl	%al, %eax
    1990: 48 98                        	cltq
    1992: 48 33 85 40 ff ff ff         	xorq	-192(%rbp), %rax
    1999: 48 2b 85 40 ff ff ff         	subq	-192(%rbp), %rax
    19a0: 48 89 85 38 ff ff ff         	movq	%rax, -200(%rbp)
    19a7: 48 8b 85 38 ff ff ff         	movq	-200(%rbp), %rax
    19ae: 48 8b 4d 80                  	movq	-128(%rbp), %rcx
    19b2: 48 2b 8d 78 ff ff ff         	subq	-136(%rbp), %rcx
    19b9: 48 21 c8                     	andq	%rcx, %rax
    19bc: 48 c7 85 30 ff ff ff 01 00 00 00     	movq	$1, -208(%rbp)
    19c7: 80 bd 4b ff ff ff 00         	cmpb	$0, -181(%rbp)
    19ce: 0f 95 c1                     	setne	%cl
    19d1: 80 f1 ff                     	xorb	$-1, %cl
    19d4: 80 f1 ff                     	xorb	$-1, %cl
    19d7: 80 f1 ff                     	xorb	$-1, %cl
    19da: 80 e1 01                     	andb	$1, %cl
    19dd: 0f b6 c9                     	movzbl	%cl, %ecx
    19e0: 48 63 c9                     	movslq	%ecx, %rcx
    19e3: 48 33 8d 30 ff ff ff         	xorq	-208(%rbp), %rcx
    19ea: 48 2b 8d 30 ff ff ff         	subq	-208(%rbp), %rcx
    19f1: 48 89 8d 28 ff ff ff         	movq	%rcx, -216(%rbp)
    19f8: 48 8b 8d 28 ff ff ff         	movq	-216(%rbp), %rcx
    19ff: 48 23 4d 80                  	andq	-128(%rbp), %rcx
    1a03: 48 09 c8                     	orq	%rcx, %rax
    1a06: 48 89 45 80                  	movq	%rax, -128(%rbp)
    1a0a: 48 8b 85 70 ff ff ff         	movq	-144(%rbp), %rax
    1a11: 48 c7 85 20 ff ff ff 01 00 00 00     	movq	$1, -224(%rbp)
    1a1c: 80 bd 4b ff ff ff 00         	cmpb	$0, -181(%rbp)
    1a23: 0f 95 c1                     	setne	%cl
    1a26: 80 f1 ff                     	xorb	$-1, %cl
    1a29: 80 f1 ff                     	xorb	$-1, %cl
    1a2c: 80 e1 01                     	andb	$1, %cl
    1a2f: 0f b6 c9                     	movzbl	%cl, %ecx
    1a32: 48 63 c9                     	movslq	%ecx, %rcx
    1a35: 48 33 8d 20 ff ff ff         	xorq	-224(%rbp), %rcx
    1a3c: 48 2b 8d 20 ff ff ff         	subq	-224(%rbp), %rcx
    1a43: 48 89 8d 18 ff ff ff         	movq	%rcx, -232(%rbp)
    1a4a: 48 8b 8d 18 ff ff ff         	movq	-232(%rbp), %rcx
    1a51: 48 83 e1 01                  	andq	$1, %rcx
    1a55: 48 09 c8                     	orq	%rcx, %rax
    1a58: 48 89 85 70 ff ff ff         	movq	%rax, -144(%rbp)
    1a5f: 48 8b 85 70 ff ff ff         	movq	-144(%rbp), %rax
    1a66: 48 c1 e0 01                  	shlq	$1, %rax
    1a6a: 48 89 85 70 ff ff ff         	movq	%rax, -144(%rbp)
    1a71: 48 8b 85 78 ff ff ff         	movq	-136(%rbp), %rax
    1a78: 48 c1 e8 01                  	shrq	$1, %rax
    1a7c: 48 89 85 78 ff ff ff         	movq	%rax, -136(%rbp)
    1a83: 8b 85 4c ff ff ff            	movl	-180(%rbp), %eax
    1a89: 83 c0 ff                     	addl	$-1, %eax
    1a8c: 89 85 4c ff ff ff            	movl	%eax, -180(%rbp)
    1a92: e9 a2 fe ff ff               	jmp	0x1939 <_fix_div_64+0x259>
    1a97: 0f be 4d 8d                  	movsbl	-115(%rbp), %ecx
    1a9b: b8 01 00 00 00               	movl	$1, %eax
    1aa0: 29 c8                        	subl	%ecx, %eax
    1aa2: 48 98                        	cltq
    1aa4: 48 89 85 10 ff ff ff         	movq	%rax, -240(%rbp)
    1aab: 48 8b 85 70 ff ff ff         	movq	-144(%rbp), %rax
    1ab2: 48 8b 8d 10 ff ff ff         	movq	-240(%rbp), %rcx
    1ab9: ba 01 00 00 00               	movl	$1, %edx
    1abe: 48 d3 e2                     	shlq	%cl, %rdx
    1ac1: 48 89 d1                     	movq	%rdx, %rcx
    1ac4: 48 83 e9 01                  	subq	$1, %rcx
    1ac8: 48 21 c8                     	andq	%rcx, %rax
    1acb: 48 89 85 08 ff ff ff         	movq	%rax, -248(%rbp)
    1ad2: 48 c7 85 00 ff ff ff 01 00 00 00     	movq	$1, -256(%rbp)
    1add: 48 83 bd 10 ff ff ff 40      	cmpq	$64, -240(%rbp)
    1ae5: 0f 9c c0                     	setl	%al
    1ae8: 34 ff                        	xorb	$-1, %al
    1aea: 34 ff                        	xorb	$-1, %al
    1aec: 24 01                        	andb	$1, %al
    1aee: 0f b6 c0                     	movzbl	%al, %eax
    1af1: 48 98                        	cltq
    1af3: 48 33 85 00 ff ff ff         	xorq	-256(%rbp), %rax
    1afa: 48 2b 85 00 ff ff ff         	subq	-256(%rbp), %rax
    1b01: 48 89 85 f8 fe ff ff         	movq	%rax, -264(%rbp)
    1b08: 48 8b 85 f8 fe ff ff         	movq	-264(%rbp), %rax
    1b0f: 48 8b 95 70 ff ff ff         	movq	-144(%rbp), %rdx
    1b16: 48 8b 8d 10 ff ff ff         	movq	-240(%rbp), %rcx
    1b1d: 48 d3 ea                     	shrq	%cl, %rdx
    1b20: 48 89 d1                     	movq	%rdx, %rcx
    1b23: 48 21 c8                     	andq	%rcx, %rax
    1b26: 48 89 85 70 ff ff ff         	movq	%rax, -144(%rbp)
    1b2d: 48 83 bd 10 ff ff ff 00      	cmpq	$0, -240(%rbp)
    1b35: 0f 9c c0                     	setl	%al
    1b38: 24 01                        	andb	$1, %al
    1b3a: 0f b6 c0                     	movzbl	%al, %eax
    1b3d: 48 83 bd 10 ff ff ff 00      	cmpq	$0, -240(%rbp)
    1b45: 0f 94 c1                     	sete	%cl
    1b48: 80 e1 01                     	andb	$1, %cl
    1b4b: 0f b6 c9                     	movzbl	%cl, %ecx
    1b4e: 48 ba 00 00 00 00 00 00 00 80	movabsq	$-9223372036854775808, %rdx ## imm = 0x8000000000000000
    1b58: 48 39 55 d8                  	cmpq	%rdx, -40(%rbp)
    1b5c: 0f 95 c2                     	setne	%dl
    1b5f: 80 e2 01                     	andb	$1, %dl
    1b62: 0f b6 d2                     	movzbl	%dl, %edx
    1b65: 21 d1                        	andl	%edx, %ecx
    1b67: 09 c8                        	orl	%ecx, %eax
    1b69: 88 c1                        	movb	%al, %cl
    1b6b: 48 8b 45 e8                  	movq	-24(%rbp), %rax
    1b6f: 88 08                        	movb	%cl, (%rax)
    1b71: 48 83 bd 08 ff ff ff 00      	cmpq	$0, -248(%rbp)
    1b79: 0f 95 c0                     	setne	%al
    1b7c: 34 ff                        	xorb	$-1, %al
    1b7e: 34 ff                        	xorb	$-1, %al
    1b80: 24 01                        	andb	$1, %al
    1b82: 0f b6 c0                     	movzbl	%al, %eax
    1b85: 48 98                        	cltq
    1b87: 48 0b 85 70 ff ff ff         	orq	-144(%rbp), %rax
    1b8e: 48 89 85 70 ff ff ff         	movq	%rax, -144(%rbp)
    1b95: 48 8b 85 70 ff ff ff         	movq	-144(%rbp), %rax
    1b9c: 48 c1 e8 02                  	shrq	$2, %rax
    1ba0: 48 8b 8d 70 ff ff ff         	movq	-144(%rbp), %rcx
    1ba7: 48 83 e1 02                  	andq	$2, %rcx
    1bab: 48 83 f9 00                  	cmpq	$0, %rcx
    1baf: 0f 95 c1                     	setne	%cl
    1bb2: 80 f1 ff                     	xorb	$-1, %cl
    1bb5: 80 f1 ff                     	xorb	$-1, %cl
    1bb8: 80 e1 01                     	andb	$1, %cl
    1bbb: 0f b6 c9                     	movzbl	%cl, %ecx
    1bbe: 48 8b 95 70 ff ff ff         	movq	-144(%rbp), %rdx
    1bc5: 48 83 e2 01                  	andq	$1, %rdx
    1bc9: 48 83 fa 00                  	cmpq	$0, %rdx
    1bcd: 0f 95 c2                     	setne	%dl
    1bd0: 80 f2 ff                     	xorb	$-1, %dl
    1bd3: 80 f2 ff                     	xorb	$-1, %dl
    1bd6: 80 e2 01                     	andb	$1, %dl
    1bd9: 0f b6 d2                     	movzbl	%dl, %edx
    1bdc: 21 d1                        	andl	%edx, %ecx
    1bde: 48 8b 95 70 ff ff ff         	movq	-144(%rbp), %rdx
    1be5: 48 c1 ea 00                  	shrq	$0, %rdx
    1be9: 48 83 e2 06                  	andq	$6, %rdx
    1bed: 48 83 fa 06                  	cmpq	$6, %rdx
    1bf1: 0f 94 c2                     	sete	%dl
    1bf4: 80 e2 01                     	andb	$1, %dl
    1bf7: 0f b6 d2                     	movzbl	%dl, %edx
    1bfa: 09 d1                        	orl	%edx, %ecx
    1bfc: 83 f9 00                     	cmpl	$0, %ecx
    1bff: 0f 95 c1                     	setne	%cl
    1c02: 80 f1 ff                     	xorb	$-1, %cl
    1c05: 80 f1 ff                     	xorb	$-1, %cl
    1c08: 80 e1 01                     	andb	$1, %cl
    1c0b: 0f b6 c9                     	movzbl	%cl, %ecx
    1c0e: 48 63 c9                     	movslq	%ecx, %rcx
    1c11: 48 01 c8                     	addq	%rcx, %rax
    1c14: 48 c1 e0 02                  	shlq	$2, %rax
    1c18: 48 89 85 70 ff ff ff         	movq	%rax, -144(%rbp)
    1c1f: 48 c7 85 f0 fe ff ff 01 00 00 00     	movq	$1, -272(%rbp)
    1c2a: 0f b6 45 e6                  	movzbl	-26(%rbp), %eax
    1c2e: 0f b6 4d e7                  	movzbl	-25(%rbp), %ecx
    1c32: 39 c8                        	cmpl	%ecx, %eax
    1c34: 0f 94 c0                     	sete	%al
    1c37: 34 ff                        	xorb	$-1, %al
    1c39: 34 ff                        	xorb	$-1, %al
    1c3b: 24 01                        	andb	$1, %al
    1c3d: 0f b6 c0                     	movzbl	%al, %eax
    1c40: 48 98                        	cltq
    1c42: 48 33 85 f0 fe ff ff         	xorq	-272(%rbp), %rax
    1c49: 48 2b 85 f0 fe ff ff         	subq	-272(%rbp), %rax
    1c50: 48 89 85 e8 fe ff ff         	movq	%rax, -280(%rbp)
    1c57: 48 8b 85 e8 fe ff ff         	movq	-280(%rbp), %rax
    1c5e: 48 23 85 70 ff ff ff         	andq	-144(%rbp), %rax
    1c65: 48 89 85 d0 fe ff ff         	movq	%rax, -304(%rbp)
    1c6c: 48 c7 85 e0 fe ff ff 01 00 00 00     	movq	$1, -288(%rbp)
    1c77: 0f b6 45 e6                  	movzbl	-26(%rbp), %eax
    1c7b: 0f b6 4d e7                  	movzbl	-25(%rbp), %ecx
    1c7f: 39 c8                        	cmpl	%ecx, %eax
    1c81: 0f 95 c0                     	setne	%al
    1c84: 34 ff                        	xorb	$-1, %al
    1c86: 34 ff                        	xorb	$-1, %al
    1c88: 24 01                        	andb	$1, %al
    1c8a: 0f b6 c0                     	movzbl	%al, %eax
    1c8d: 48 98                        	cltq
    1c8f: 48 33 85 e0 fe ff ff         	xorq	-288(%rbp), %rax
    1c96: 48 2b 85 e0 fe ff ff         	subq	-288(%rbp), %rax
    1c9d: 48 89 85 d8 fe ff ff         	movq	%rax, -296(%rbp)
    1ca4: 48 8b 85 d8 fe ff ff         	movq	-296(%rbp), %rax
    1cab: 48 89 85 c8 fe ff ff         	movq	%rax, -312(%rbp)
    1cb2: 48 8b bd 70 ff ff ff         	movq	-144(%rbp), %rdi
    1cb9: e8 00 00 00 00               	callq	0x1cbe <_fix_div_64+0x5de>
    1cbe: 48 8b 8d c8 fe ff ff         	movq	-312(%rbp), %rcx
    1cc5: 48 89 c2                     	movq	%rax, %rdx
    1cc8: 48 8b 85 d0 fe ff ff         	movq	-304(%rbp), %rax
    1ccf: 48 21 d1                     	andq	%rdx, %rcx
    1cd2: 48 09 c8                     	orq	%rcx, %rax
    1cd5: 48 89 85 70 ff ff ff         	movq	%rax, -144(%rbp)
    1cdc: 48 8b 85 70 ff ff ff         	movq	-144(%rbp), %rax
    1ce3: 48 83 e0 fc                  	andq	$-4, %rax
    1ce7: 48 81 c4 40 01 00 00         	addq	$320, %rsp              ## imm = 0x140
    1cee: 5d                           	popq	%rbp
    1cef: c3                           	retq

0000000000001cf0 <_fix_mul>:
    1cf0: 55                           	pushq	%rbp
    1cf1: 48 89 e5                     	movq	%rsp, %rbp
    1cf4: 48 81 ec 80 04 00 00         	subq	$1152, %rsp             ## imm = 0x480
    1cfb: 4c 8b 5d f8                  	movq	-8(%rbp), %r11
    1cff: 41 83 e3 00                  	andl	$0, %r11d
    1d03: 41 89 fb                     	movl	%edi, %r11d
    1d06: 49 f7 d3                     	notq	%r11
    1d09: 4c 89 5d f8                  	movq	%r11, -8(%rbp)
    1d0d: 48 89 7d f8                  	movq	%rdi, -8(%rbp)
    1d11: 4c 8b 5d f0                  	movq	-16(%rbp), %r11
    1d15: 41 83 e3 00                  	andl	$0, %r11d
    1d19: 41 89 f3                     	movl	%esi, %r11d
    1d1c: 49 f7 d3                     	notq	%r11
    1d1f: 4c 89 5d f0                  	movq	%r11, -16(%rbp)
    1d23: 48 89 75 f0                  	movq	%rsi, -16(%rbp)
    1d27: 48 8b 45 f8                  	movq	-8(%rbp), %rax
    1d2b: 48 83 e0 03                  	andq	$3, %rax
    1d2f: 48 83 f8 03                  	cmpq	$3, %rax
    1d33: 0f 94 c0                     	sete	%al
    1d36: 24 01                        	andb	$1, %al
    1d38: 0f b6 c0                     	movzbl	%al, %eax
    1d3b: 48 8b 4d f8                  	movq	-8(%rbp), %rcx
    1d3f: 48 83 e1 03                  	andq	$3, %rcx
    1d43: 48 83 f9 02                  	cmpq	$2, %rcx
    1d47: 0f 94 c1                     	sete	%cl
    1d4a: 80 e1 01                     	andb	$1, %cl
    1d4d: 0f b6 c9                     	movzbl	%cl, %ecx
    1d50: 09 c8                        	orl	%ecx, %eax
    1d52: 44 8a 5d ef                  	movb	-17(%rbp), %r11b
    1d56: 41 82                        	<unknown>
    1d58: e3 f0                        	jrcxz	0x1d4a <_fix_mul+0x5a>
    1d5a: 41 88 c3                     	movb	%al, %r11b
    1d5d: 49 f7 d3                     	notq	%r11
    1d60: 44 88 5d ef                  	movb	%r11b, -17(%rbp)
    1d64: 88 45 ef                     	movb	%al, -17(%rbp)
    1d67: 48 8b 45 f0                  	movq	-16(%rbp), %rax
    1d6b: 48 83 e0 03                  	andq	$3, %rax
    1d6f: 48 83 f8 03                  	cmpq	$3, %rax
    1d73: 0f 94 c0                     	sete	%al
    1d76: 24 01                        	andb	$1, %al
    1d78: 0f b6 c0                     	movzbl	%al, %eax
    1d7b: 48 8b 4d f0                  	movq	-16(%rbp), %rcx
    1d7f: 48 83 e1 03                  	andq	$3, %rcx
    1d83: 48 83 f9 02                  	cmpq	$2, %rcx
    1d87: 0f 94 c1                     	sete	%cl
    1d8a: 80 e1 01                     	andb	$1, %cl
    1d8d: 0f b6 c9                     	movzbl	%cl, %ecx
    1d90: 09 c8                        	orl	%ecx, %eax
    1d92: 44 8a 5d ee                  	movb	-18(%rbp), %r11b
    1d96: 41 82                        	<unknown>
    1d98: e3 f0                        	jrcxz	0x1d8a <_fix_mul+0x9a>
    1d9a: 41 88 c3                     	movb	%al, %r11b
    1d9d: 49 f7 d3                     	notq	%r11
    1da0: 44 88 5d ee                  	movb	%r11b, -18(%rbp)
    1da4: 88 45 ee                     	movb	%al, -18(%rbp)
    1da7: 48 8b 45 f8                  	movq	-8(%rbp), %rax
    1dab: 48 83 e0 03                  	andq	$3, %rax
    1daf: 48 83 f8 03                  	cmpq	$3, %rax
    1db3: 0f 94 c0                     	sete	%al
    1db6: 24 01                        	andb	$1, %al
    1db8: 0f b6 c0                     	movzbl	%al, %eax
    1dbb: 48 b9 00 00 00 00 00 00 00 80	movabsq	$-9223372036854775808, %rcx ## imm = 0x8000000000000000
    1dc5: 48 23 4d f8                  	andq	-8(%rbp), %rcx
    1dc9: 48 ba 00 00 00 00 00 00 00 80	movabsq	$-9223372036854775808, %rdx ## imm = 0x8000000000000000
    1dd3: 48 39 d1                     	cmpq	%rdx, %rcx
    1dd6: 0f 94 c1                     	sete	%cl
    1dd9: 80 e1 01                     	andb	$1, %cl
    1ddc: 0f b6 c9                     	movzbl	%cl, %ecx
    1ddf: 80 7d ef 00                  	cmpb	$0, -17(%rbp)
    1de3: 0f 95 c2                     	setne	%dl
    1de6: 80 f2 ff                     	xorb	$-1, %dl
    1de9: 80 e2 01                     	andb	$1, %dl
    1dec: 0f b6 d2                     	movzbl	%dl, %edx
    1def: 21 d1                        	andl	%edx, %ecx
    1df1: 09 c8                        	orl	%ecx, %eax
    1df3: 44 8a 5d ed                  	movb	-19(%rbp), %r11b
    1df7: 41 82                        	<unknown>
    1df9: e3 f0                        	jrcxz	0x1deb <_fix_mul+0xfb>
    1dfb: 41 88 c3                     	movb	%al, %r11b
    1dfe: 49 f7 d3                     	notq	%r11
    1e01: 44 88 5d ed                  	movb	%r11b, -19(%rbp)
    1e05: 88 45 ed                     	movb	%al, -19(%rbp)
    1e08: 48 8b 45 f0                  	movq	-16(%rbp), %rax
    1e0c: 48 83 e0 03                  	andq	$3, %rax
    1e10: 48 83 f8 03                  	cmpq	$3, %rax
    1e14: 0f 94 c0                     	sete	%al
    1e17: 24 01                        	andb	$1, %al
    1e19: 0f b6 c0                     	movzbl	%al, %eax
    1e1c: 48 b9 00 00 00 00 00 00 00 80	movabsq	$-9223372036854775808, %rcx ## imm = 0x8000000000000000
    1e26: 48 23 4d f0                  	andq	-16(%rbp), %rcx
    1e2a: 48 ba 00 00 00 00 00 00 00 80	movabsq	$-9223372036854775808, %rdx ## imm = 0x8000000000000000
    1e34: 48 39 d1                     	cmpq	%rdx, %rcx
    1e37: 0f 94 c1                     	sete	%cl
    1e3a: 80 e1 01                     	andb	$1, %cl
    1e3d: 0f b6 c9                     	movzbl	%cl, %ecx
    1e40: 80 7d ee 00                  	cmpb	$0, -18(%rbp)
    1e44: 0f 95 c2                     	setne	%dl
    1e47: 80 f2 ff                     	xorb	$-1, %dl
    1e4a: 80 e2 01                     	andb	$1, %dl
    1e4d: 0f b6 d2                     	movzbl	%dl, %edx
    1e50: 21 d1                        	andl	%edx, %ecx
    1e52: 09 c8                        	orl	%ecx, %eax
    1e54: 44 8a 5d ec                  	movb	-20(%rbp), %r11b
    1e58: 41 82                        	<unknown>
    1e5a: e3 f0                        	jrcxz	0x1e4c <_fix_mul+0x15c>
    1e5c: 41 88 c3                     	movb	%al, %r11b
    1e5f: 49 f7 d3                     	notq	%r11
    1e62: 44 88 5d ec                  	movb	%r11b, -20(%rbp)
    1e66: 88 45 ec                     	movb	%al, -20(%rbp)
    1e69: 48 8b 45 f8                  	movq	-8(%rbp), %rax
    1e6d: 48 83 e0 03                  	andq	$3, %rax
    1e71: 48 83 f8 01                  	cmpq	$1, %rax
    1e75: 0f 94 c0                     	sete	%al
    1e78: 24 01                        	andb	$1, %al
    1e7a: 0f b6 c0                     	movzbl	%al, %eax
    1e7d: 48 8b 4d f0                  	movq	-16(%rbp), %rcx
    1e81: 48 83 e1 03                  	andq	$3, %rcx
    1e85: 48 83 f9 01                  	cmpq	$1, %rcx
    1e89: 0f 94 c1                     	sete	%cl
    1e8c: 80 e1 01                     	andb	$1, %cl
    1e8f: 0f b6 c9                     	movzbl	%cl, %ecx
    1e92: 09 c8                        	orl	%ecx, %eax
    1e94: 44 8a 5d eb                  	movb	-21(%rbp), %r11b
    1e98: 41 82                        	<unknown>
    1e9a: e3 f0                        	jrcxz	0x1e8c <_fix_mul+0x19c>
    1e9c: 41 88 c3                     	movb	%al, %r11b
    1e9f: 49 f7 d3                     	notq	%r11
    1ea2: 44 88 5d eb                  	movb	%r11b, -21(%rbp)
    1ea6: 88 45 eb                     	movb	%al, -21(%rbp)
    1ea9: c6 45 ea 00                  	movb	$0, -22(%rbp)
    1ead: 48 83 7d f8 00               	cmpq	$0, -8(%rbp)
    1eb2: 0f 94 c0                     	sete	%al
    1eb5: 24 01                        	andb	$1, %al
    1eb7: 0f b6 c0                     	movzbl	%al, %eax
    1eba: 48 83 7d f0 00               	cmpq	$0, -16(%rbp)
    1ebf: 0f 94 c1                     	sete	%cl
    1ec2: 80 e1 01                     	andb	$1, %cl
    1ec5: 0f b6 c9                     	movzbl	%cl, %ecx
    1ec8: 09 c8                        	orl	%ecx, %eax
    1eca: 44 8a 5d e9                  	movb	-23(%rbp), %r11b
    1ece: 41 82                        	<unknown>
    1ed0: e3 f0                        	jrcxz	0x1ec2 <_fix_mul+0x1d2>
    1ed2: 41 88 c3                     	movb	%al, %r11b
    1ed5: 49 f7 d3                     	notq	%r11
    1ed8: 44 88 5d e9                  	movb	%r11b, -23(%rbp)
    1edc: 88 45 e9                     	movb	%al, -23(%rbp)
    1edf: 48 c7 45 c0 01 00 00 00      	movq	$1, -64(%rbp)
    1ee7: 48 8b 45 f8                  	movq	-8(%rbp), %rax
    1eeb: 48 c1 e8 3f                  	shrq	$63, %rax
    1eef: 48 83 f8 00                  	cmpq	$0, %rax
    1ef3: 0f 95 c0                     	setne	%al
    1ef6: 34 ff                        	xorb	$-1, %al
    1ef8: 34 ff                        	xorb	$-1, %al
    1efa: 24 01                        	andb	$1, %al
    1efc: 0f b6 c0                     	movzbl	%al, %eax
    1eff: 48 98                        	cltq
    1f01: 48 33 45 c0                  	xorq	-64(%rbp), %rax
    1f05: 48 2b 45 c0                  	subq	-64(%rbp), %rax
    1f09: 4c 8b 5d b8                  	movq	-72(%rbp), %r11
    1f0d: 41 83 e3 00                  	andl	$0, %r11d
    1f11: 41 89 c3                     	movl	%eax, %r11d
    1f14: 49 f7 d3                     	notq	%r11
    1f17: 4c 89 5d b8                  	movq	%r11, -72(%rbp)
    1f1b: 48 89 45 b8                  	movq	%rax, -72(%rbp)
    1f1f: 48 8b 45 b8                  	movq	-72(%rbp), %rax
    1f23: 48 8b 4d f8                  	movq	-8(%rbp), %rcx
    1f27: 48 83 f1 ff                  	xorq	$-1, %rcx
    1f2b: 48 83 c1 01                  	addq	$1, %rcx
    1f2f: 48 21 c8                     	andq	%rcx, %rax
    1f32: 48 c7 45 b0 01 00 00 00      	movq	$1, -80(%rbp)
    1f3a: 48 8b 4d f8                  	movq	-8(%rbp), %rcx
    1f3e: 48 c1 e9 3f                  	shrq	$63, %rcx
    1f42: 48 83 f9 00                  	cmpq	$0, %rcx
    1f46: 0f 95 c1                     	setne	%cl
    1f49: 80 f1 ff                     	xorb	$-1, %cl
    1f4c: 80 f1 ff                     	xorb	$-1, %cl
    1f4f: 80 f1 ff                     	xorb	$-1, %cl
    1f52: 80 e1 01                     	andb	$1, %cl
    1f55: 0f b6 c9                     	movzbl	%cl, %ecx
    1f58: 48 63 c9                     	movslq	%ecx, %rcx
    1f5b: 48 33 4d b0                  	xorq	-80(%rbp), %rcx
    1f5f: 48 2b 4d b0                  	subq	-80(%rbp), %rcx
    1f63: 4c 8b 5d a8                  	movq	-88(%rbp), %r11
    1f67: 41 83 e3 00                  	andl	$0, %r11d
    1f6b: 41 89 cb                     	movl	%ecx, %r11d
    1f6e: 49 f7 d3                     	notq	%r11
    1f71: 4c 89 5d a8                  	movq	%r11, -88(%rbp)
    1f75: 48 89 4d a8                  	movq	%rcx, -88(%rbp)
    1f79: 48 8b 4d a8                  	movq	-88(%rbp), %rcx
    1f7d: 48 23 4d f8                  	andq	-8(%rbp), %rcx
    1f81: 48 09 c8                     	orq	%rcx, %rax
    1f84: 4c 8b 5d c8                  	movq	-56(%rbp), %r11
    1f88: 41 83 e3 00                  	andl	$0, %r11d
    1f8c: 41 89 c3                     	movl	%eax, %r11d
    1f8f: 49 f7 d3                     	notq	%r11
    1f92: 4c 89 5d c8                  	movq	%r11, -56(%rbp)
    1f96: 48 89 45 c8                  	movq	%rax, -56(%rbp)
    1f9a: 48 c7 45 98 01 00 00 00      	movq	$1, -104(%rbp)
    1fa2: 48 8b 45 f0                  	movq	-16(%rbp), %rax
    1fa6: 48 c1 e8 3f                  	shrq	$63, %rax
    1faa: 48 83 f8 00                  	cmpq	$0, %rax
    1fae: 0f 95 c0                     	setne	%al
    1fb1: 34 ff                        	xorb	$-1, %al
    1fb3: 34 ff                        	xorb	$-1, %al
    1fb5: 24 01                        	andb	$1, %al
    1fb7: 0f b6 c0                     	movzbl	%al, %eax
    1fba: 48 98                        	cltq
    1fbc: 48 33 45 98                  	xorq	-104(%rbp), %rax
    1fc0: 48 2b 45 98                  	subq	-104(%rbp), %rax
    1fc4: 4c 8b 5d 90                  	movq	-112(%rbp), %r11
    1fc8: 41 83 e3 00                  	andl	$0, %r11d
    1fcc: 41 89 c3                     	movl	%eax, %r11d
    1fcf: 49 f7 d3                     	notq	%r11
    1fd2: 4c 89 5d 90                  	movq	%r11, -112(%rbp)
    1fd6: 48 89 45 90                  	movq	%rax, -112(%rbp)
    1fda: 48 8b 45 90                  	movq	-112(%rbp), %rax
    1fde: 48 8b 4d f0                  	movq	-16(%rbp), %rcx
    1fe2: 48 83 f1 ff                  	xorq	$-1, %rcx
    1fe6: 48 83 c1 01                  	addq	$1, %rcx
    1fea: 48 21 c8                     	andq	%rcx, %rax
    1fed: 48 c7 45 88 01 00 00 00      	movq	$1, -120(%rbp)
    1ff5: 48 8b 4d f0                  	movq	-16(%rbp), %rcx
    1ff9: 48 c1 e9 3f                  	shrq	$63, %rcx
    1ffd: 48 83 f9 00                  	cmpq	$0, %rcx
    2001: 0f 95 c1                     	setne	%cl
    2004: 80 f1 ff                     	xorb	$-1, %cl
    2007: 80 f1 ff                     	xorb	$-1, %cl
    200a: 80 f1 ff                     	xorb	$-1, %cl
    200d: 80 e1 01                     	andb	$1, %cl
    2010: 0f b6 c9                     	movzbl	%cl, %ecx
    2013: 48 63 c9                     	movslq	%ecx, %rcx
    2016: 48 33 4d 88                  	xorq	-120(%rbp), %rcx
    201a: 48 2b 4d 88                  	subq	-120(%rbp), %rcx
    201e: 4c 8b 5d 80                  	movq	-128(%rbp), %r11
    2022: 41 83 e3 00                  	andl	$0, %r11d
    2026: 41 89 cb                     	movl	%ecx, %r11d
    2029: 49 f7 d3                     	notq	%r11
    202c: 4c 89 5d 80                  	movq	%r11, -128(%rbp)
    2030: 48 89 4d 80                  	movq	%rcx, -128(%rbp)
    2034: 48 8b 4d 80                  	movq	-128(%rbp), %rcx
    2038: 48 23 4d f0                  	andq	-16(%rbp), %rcx
    203c: 48 09 c8                     	orq	%rcx, %rax
    203f: 4c 8b 5d a0                  	movq	-96(%rbp), %r11
    2043: 41 83 e3 00                  	andl	$0, %r11d
    2047: 41 89 c3                     	movl	%eax, %r11d
    204a: 49 f7 d3                     	notq	%r11
    204d: 4c 89 5d a0                  	movq	%r11, -96(%rbp)
    2051: 48 89 45 a0                  	movq	%rax, -96(%rbp)
    2055: 48 8b 45 c8                  	movq	-56(%rbp), %rax
    2059: 48 c1 e8 20                  	shrq	$32, %rax
    205d: 4c 8b 9d 78 ff ff ff         	movq	-136(%rbp), %r11
    2064: 41 83 e3 00                  	andl	$0, %r11d
    2068: 41 89 c3                     	movl	%eax, %r11d
    206b: 49 f7 d3                     	notq	%r11
    206e: 4c 89 9d 78 ff ff ff         	movq	%r11, -136(%rbp)
    2075: 48 89 85 78 ff ff ff         	movq	%rax, -136(%rbp)
    207c: 48 b8 ff ff ff ff 00 00 00 00	movabsq	$4294967295, %rax       ## imm = 0xFFFFFFFF
    2086: 48 23 45 c8                  	andq	-56(%rbp), %rax
    208a: 4c 8b 9d 70 ff ff ff         	movq	-144(%rbp), %r11
    2091: 41 83 e3 00                  	andl	$0, %r11d
    2095: 41 89 c3                     	movl	%eax, %r11d
    2098: 49 f7 d3                     	notq	%r11
    209b: 4c 89 9d 70 ff ff ff         	movq	%r11, -144(%rbp)
    20a2: 48 89 85 70 ff ff ff         	movq	%rax, -144(%rbp)
    20a9: 48 8b 45 a0                  	movq	-96(%rbp), %rax
    20ad: 48 c1 e8 20                  	shrq	$32, %rax
    20b1: 4c 8b 9d 68 ff ff ff         	movq	-152(%rbp), %r11
    20b8: 41 83 e3 00                  	andl	$0, %r11d
    20bc: 41 89 c3                     	movl	%eax, %r11d
    20bf: 49 f7 d3                     	notq	%r11
    20c2: 4c 89 9d 68 ff ff ff         	movq	%r11, -152(%rbp)
    20c9: 48 89 85 68 ff ff ff         	movq	%rax, -152(%rbp)
    20d0: 48 b8 ff ff ff ff 00 00 00 00	movabsq	$4294967295, %rax       ## imm = 0xFFFFFFFF
    20da: 48 23 45 a0                  	andq	-96(%rbp), %rax
    20de: 4c 8b 9d 60 ff ff ff         	movq	-160(%rbp), %r11
    20e5: 41 83 e3 00                  	andl	$0, %r11d
    20e9: 41 89 c3                     	movl	%eax, %r11d
    20ec: 49 f7 d3                     	notq	%r11
    20ef: 4c 89 9d 60 ff ff ff         	movq	%r11, -160(%rbp)
    20f6: 48 89 85 60 ff ff ff         	movq	%rax, -160(%rbp)
    20fd: 48 8b 85 70 ff ff ff         	movq	-144(%rbp), %rax
    2104: 48 0f af 85 60 ff ff ff      	imulq	-160(%rbp), %rax
    210c: 4c 8b 9d 58 ff ff ff         	movq	-168(%rbp), %r11
    2113: 41 83 e3 00                  	andl	$0, %r11d
    2117: 41 89 c3                     	movl	%eax, %r11d
    211a: 49 f7 d3                     	notq	%r11
    211d: 4c 89 9d 58 ff ff ff         	movq	%r11, -168(%rbp)
    2124: 48 89 85 58 ff ff ff         	movq	%rax, -168(%rbp)
    212b: 48 8b 85 70 ff ff ff         	movq	-144(%rbp), %rax
    2132: 48 0f af 85 68 ff ff ff      	imulq	-152(%rbp), %rax
    213a: 4c 8b 9d 50 ff ff ff         	movq	-176(%rbp), %r11
    2141: 41 83 e3 00                  	andl	$0, %r11d
    2145: 41 89 c3                     	movl	%eax, %r11d
    2148: 49 f7 d3                     	notq	%r11
    214b: 4c 89 9d 50 ff ff ff         	movq	%r11, -176(%rbp)
    2152: 48 89 85 50 ff ff ff         	movq	%rax, -176(%rbp)
    2159: 48 8b 85 78 ff ff ff         	movq	-136(%rbp), %rax
    2160: 48 0f af 85 60 ff ff ff      	imulq	-160(%rbp), %rax
    2168: 4c 8b 9d 48 ff ff ff         	movq	-184(%rbp), %r11
    216f: 41 83 e3 00                  	andl	$0, %r11d
    2173: 41 89 c3                     	movl	%eax, %r11d
    2176: 49 f7 d3                     	notq	%r11
    2179: 4c 89 9d 48 ff ff ff         	movq	%r11, -184(%rbp)
    2180: 48 89 85 48 ff ff ff         	movq	%rax, -184(%rbp)
    2187: 48 8b 85 78 ff ff ff         	movq	-136(%rbp), %rax
    218e: 48 0f af 85 68 ff ff ff      	imulq	-152(%rbp), %rax
    2196: 4c 8b 9d 40 ff ff ff         	movq	-192(%rbp), %r11
    219d: 41 83 e3 00                  	andl	$0, %r11d
    21a1: 41 89 c3                     	movl	%eax, %r11d
    21a4: 49 f7 d3                     	notq	%r11
    21a7: 4c 89 9d 40 ff ff ff         	movq	%r11, -192(%rbp)
    21ae: 48 89 85 40 ff ff ff         	movq	%rax, -192(%rbp)
    21b5: 48 8b 85 58 ff ff ff         	movq	-168(%rbp), %rax
    21bc: 48 b9 ff ff ff ff 00 00 00 00	movabsq	$4294967295, %rcx       ## imm = 0xFFFFFFFF
    21c6: 48 23 8d 50 ff ff ff         	andq	-176(%rbp), %rcx
    21cd: 48 c1 e1 20                  	shlq	$32, %rcx
    21d1: 48 01 c8                     	addq	%rcx, %rax
    21d4: 48 b9 ff ff ff ff 00 00 00 00	movabsq	$4294967295, %rcx       ## imm = 0xFFFFFFFF
    21de: 48 23 8d 48 ff ff ff         	andq	-184(%rbp), %rcx
    21e5: 48 c1 e1 20                  	shlq	$32, %rcx
    21e9: 48 01 c8                     	addq	%rcx, %rax
    21ec: 4c 8b 5d d0                  	movq	-48(%rbp), %r11
    21f0: 41 83 e3 00                  	andl	$0, %r11d
    21f4: 41 89 c3                     	movl	%eax, %r11d
    21f7: 49 f7 d3                     	notq	%r11
    21fa: 4c 89 5d d0                  	movq	%r11, -48(%rbp)
    21fe: 48 89 45 d0                  	movq	%rax, -48(%rbp)
    2202: 48 8b 85 58 ff ff ff         	movq	-168(%rbp), %rax
    2209: 48 c1 e8 20                  	shrq	$32, %rax
    220d: 48 b9 ff ff ff ff 00 00 00 00	movabsq	$4294967295, %rcx       ## imm = 0xFFFFFFFF
    2217: 48 23 8d 50 ff ff ff         	andq	-176(%rbp), %rcx
    221e: 48 01 c8                     	addq	%rcx, %rax
    2221: 48 b9 ff ff ff ff 00 00 00 00	movabsq	$4294967295, %rcx       ## imm = 0xFFFFFFFF
    222b: 48 23 8d 48 ff ff ff         	andq	-184(%rbp), %rcx
    2232: 48 01 c8                     	addq	%rcx, %rax
    2235: 48 b9 00 00 00 00 ff ff ff ff	movabsq	$-4294967296, %rcx      ## imm = 0xFFFFFFFF00000000
    223f: 48 21 c8                     	andq	%rcx, %rax
    2242: 48 c1 e8 20                  	shrq	$32, %rax
    2246: 4c 8b 9d 38 ff ff ff         	movq	-200(%rbp), %r11
    224d: 41 83 e3 00                  	andl	$0, %r11d
    2251: 41 89 c3                     	movl	%eax, %r11d
    2254: 49 f7 d3                     	notq	%r11
    2257: 4c 89 9d 38 ff ff ff         	movq	%r11, -200(%rbp)
    225e: 48 89 85 38 ff ff ff         	movq	%rax, -200(%rbp)
    2265: 48 8b 85 38 ff ff ff         	movq	-200(%rbp), %rax
    226c: 48 03 85 40 ff ff ff         	addq	-192(%rbp), %rax
    2273: 48 b9 00 00 00 00 ff ff ff ff	movabsq	$-4294967296, %rcx      ## imm = 0xFFFFFFFF00000000
    227d: 48 23 8d 50 ff ff ff         	andq	-176(%rbp), %rcx
    2284: 48 c1 e9 20                  	shrq	$32, %rcx
    2288: 48 01 c8                     	addq	%rcx, %rax
    228b: 48 b9 00 00 00 00 ff ff ff ff	movabsq	$-4294967296, %rcx      ## imm = 0xFFFFFFFF00000000
    2295: 48 23 8d 48 ff ff ff         	andq	-184(%rbp), %rcx
    229c: 48 c1 e9 20                  	shrq	$32, %rcx
    22a0: 48 01 c8                     	addq	%rcx, %rax
    22a3: 4c 8b 5d d8                  	movq	-40(%rbp), %r11
    22a7: 41 83 e3 00                  	andl	$0, %r11d
    22ab: 41 89 c3                     	movl	%eax, %r11d
    22ae: 49 f7 d3                     	notq	%r11
    22b1: 4c 89 5d d8                  	movq	%r11, -40(%rbp)
    22b5: 48 89 45 d8                  	movq	%rax, -40(%rbp)
    22b9: 48 8b 45 f8                  	movq	-8(%rbp), %rax
    22bd: 48 c1 e8 3f                  	shrq	$63, %rax
    22c1: 48 8b 4d f0                  	movq	-16(%rbp), %rcx
    22c5: 48 c1 e9 3f                  	shrq	$63, %rcx
    22c9: 48 31 c8                     	xorq	%rcx, %rax
    22cc: 44 8a 9d 37 ff ff ff         	movb	-201(%rbp), %r11b
    22d3: 41 82                        	<unknown>
    22d5: e3 f0                        	jrcxz	0x22c7 <_fix_mul+0x5d7>
    22d7: 41 88 c3                     	movb	%al, %r11b
    22da: 49 f7 d3                     	notq	%r11
    22dd: 44 88 9d 37 ff ff ff         	movb	%r11b, -201(%rbp)
    22e4: 88 85 37 ff ff ff            	movb	%al, -201(%rbp)
    22ea: 48 c7 85 28 ff ff ff 01 00 00 00     	movq	$1, -216(%rbp)
    22f5: 80 bd 37 ff ff ff 00         	cmpb	$0, -201(%rbp)
    22fc: 0f 95 c0                     	setne	%al
    22ff: 34 ff                        	xorb	$-1, %al
    2301: 34 ff                        	xorb	$-1, %al
    2303: 24 01                        	andb	$1, %al
    2305: 0f b6 c0                     	movzbl	%al, %eax
    2308: 48 98                        	cltq
    230a: 48 33 85 28 ff ff ff         	xorq	-216(%rbp), %rax
    2311: 48 2b 85 28 ff ff ff         	subq	-216(%rbp), %rax
    2318: 4c 8b 9d 20 ff ff ff         	movq	-224(%rbp), %r11
    231f: 41 83 e3 00                  	andl	$0, %r11d
    2323: 41 89 c3                     	movl	%eax, %r11d
    2326: 49 f7 d3                     	notq	%r11
    2329: 4c 89 9d 20 ff ff ff         	movq	%r11, -224(%rbp)
    2330: 48 89 85 20 ff ff ff         	movq	%rax, -224(%rbp)
    2337: 48 8b 85 20 ff ff ff         	movq	-224(%rbp), %rax
    233e: 48 8b 4d d0                  	movq	-48(%rbp), %rcx
    2342: 48 83 f1 ff                  	xorq	$-1, %rcx
    2346: 48 83 c1 01                  	addq	$1, %rcx
    234a: 48 21 c8                     	andq	%rcx, %rax
    234d: 48 c7 85 18 ff ff ff 01 00 00 00     	movq	$1, -232(%rbp)
    2358: 80 bd 37 ff ff ff 00         	cmpb	$0, -201(%rbp)
    235f: 0f 95 c1                     	setne	%cl
    2362: 80 f1 ff                     	xorb	$-1, %cl
    2365: 80 f1 ff                     	xorb	$-1, %cl
    2368: 80 f1 ff                     	xorb	$-1, %cl
    236b: 80 e1 01                     	andb	$1, %cl
    236e: 0f b6 c9                     	movzbl	%cl, %ecx
    2371: 48 63 c9                     	movslq	%ecx, %rcx
    2374: 48 33 8d 18 ff ff ff         	xorq	-232(%rbp), %rcx
    237b: 48 2b 8d 18 ff ff ff         	subq	-232(%rbp), %rcx
    2382: 4c 8b 9d 10 ff ff ff         	movq	-240(%rbp), %r11
    2389: 41 83 e3 00                  	andl	$0, %r11d
    238d: 41 89 cb                     	movl	%ecx, %r11d
    2390: 49 f7 d3                     	notq	%r11
    2393: 4c 89 9d 10 ff ff ff         	movq	%r11, -240(%rbp)
    239a: 48 89 8d 10 ff ff ff         	movq	%rcx, -240(%rbp)
    23a1: 48 8b 8d 10 ff ff ff         	movq	-240(%rbp), %rcx
    23a8: 48 23 4d d0                  	andq	-48(%rbp), %rcx
    23ac: 48 09 c8                     	orq	%rcx, %rax
    23af: 4c 8b 5d d0                  	movq	-48(%rbp), %r11
    23b3: 41 83 e3 00                  	andl	$0, %r11d
    23b7: 41 89 c3                     	movl	%eax, %r11d
    23ba: 49 f7 d3                     	notq	%r11
    23bd: 4c 89 5d d0                  	movq	%r11, -48(%rbp)
    23c1: 48 89 45 d0                  	movq	%rax, -48(%rbp)
    23c5: 48 c7 85 08 ff ff ff 01 00 00 00     	movq	$1, -248(%rbp)
    23d0: 80 bd 37 ff ff ff 00         	cmpb	$0, -201(%rbp)
    23d7: 0f 95 c0                     	setne	%al
    23da: 34 ff                        	xorb	$-1, %al
    23dc: 34 ff                        	xorb	$-1, %al
    23de: 24 01                        	andb	$1, %al
    23e0: 0f b6 c0                     	movzbl	%al, %eax
    23e3: 48 98                        	cltq
    23e5: 48 33 85 08 ff ff ff         	xorq	-248(%rbp), %rax
    23ec: 48 2b 85 08 ff ff ff         	subq	-248(%rbp), %rax
    23f3: 4c 8b 9d 00 ff ff ff         	movq	-256(%rbp), %r11
    23fa: 41 83 e3 00                  	andl	$0, %r11d
    23fe: 41 89 c3                     	movl	%eax, %r11d
    2401: 49 f7 d3                     	notq	%r11
    2404: 4c 89 9d 00 ff ff ff         	movq	%r11, -256(%rbp)
    240b: 48 89 85 00 ff ff ff         	movq	%rax, -256(%rbp)
    2412: 48 8b 85 00 ff ff ff         	movq	-256(%rbp), %rax
    2419: 48 8b 4d d8                  	movq	-40(%rbp), %rcx
    241d: 48 83 f1 ff                  	xorq	$-1, %rcx
    2421: 48 83 7d d0 00               	cmpq	$0, -48(%rbp)
    2426: 0f 94 c2                     	sete	%dl
    2429: 80 e2 01                     	andb	$1, %dl
    242c: 0f b6 d2                     	movzbl	%dl, %edx
    242f: 48 63 d2                     	movslq	%edx, %rdx
    2432: 48 01 d1                     	addq	%rdx, %rcx
    2435: 48 21 c8                     	andq	%rcx, %rax
    2438: 48 c7 85 f8 fe ff ff 01 00 00 00     	movq	$1, -264(%rbp)
    2443: 80 bd 37 ff ff ff 00         	cmpb	$0, -201(%rbp)
    244a: 0f 95 c1                     	setne	%cl
    244d: 80 f1 ff                     	xorb	$-1, %cl
    2450: 80 f1 ff                     	xorb	$-1, %cl
    2453: 80 f1 ff                     	xorb	$-1, %cl
    2456: 80 e1 01                     	andb	$1, %cl
    2459: 0f b6 c9                     	movzbl	%cl, %ecx
    245c: 48 63 c9                     	movslq	%ecx, %rcx
    245f: 48 33 8d f8 fe ff ff         	xorq	-264(%rbp), %rcx
    2466: 48 2b 8d f8 fe ff ff         	subq	-264(%rbp), %rcx
    246d: 4c 8b 9d f0 fe ff ff         	movq	-272(%rbp), %r11
    2474: 41 83 e3 00                  	andl	$0, %r11d
    2478: 41 89 cb                     	movl	%ecx, %r11d
    247b: 49 f7 d3                     	notq	%r11
    247e: 4c 89 9d f0 fe ff ff         	movq	%r11, -272(%rbp)
    2485: 48 89 8d f0 fe ff ff         	movq	%rcx, -272(%rbp)
    248c: 48 8b 8d f0 fe ff ff         	movq	-272(%rbp), %rcx
    2493: 48 23 4d d8                  	andq	-40(%rbp), %rcx
    2497: 48 09 c8                     	orq	%rcx, %rax
    249a: 4c 8b 5d d8                  	movq	-40(%rbp), %r11
    249e: 41 83 e3 00                  	andl	$0, %r11d
    24a2: 41 89 c3                     	movl	%eax, %r11d
    24a5: 49 f7 d3                     	notq	%r11
    24a8: 4c 89 5d d8                  	movq	%r11, -40(%rbp)
    24ac: 48 89 45 d8                  	movq	%rax, -40(%rbp)
    24b0: c7 85 ec fe ff ff 00 00 00 00	movl	$0, -276(%rbp)
    24ba: 48 8b 7d d0                  	movq	-48(%rbp), %rdi
    24be: be 3f 00 00 00               	movl	$63, %esi
    24c3: e8 00 00 00 00               	callq	0x24c8 <_fix_mul+0x7d8>
    24c8: 4c 8b 9d e0 fe ff ff         	movq	-288(%rbp), %r11
    24cf: 41 83 e3 00                  	andl	$0, %r11d
    24d3: 41 89 c3                     	movl	%eax, %r11d
    24d6: 49 f7 d3                     	notq	%r11
    24d9: 4c 89 9d e0 fe ff ff         	movq	%r11, -288(%rbp)
    24e0: 48 89 85 e0 fe ff ff         	movq	%rax, -288(%rbp)
    24e7: 48 8b 85 e0 fe ff ff         	movq	-288(%rbp), %rax
    24ee: 48 8b 4d d8                  	movq	-40(%rbp), %rcx
    24f2: 48 c1 e1 01                  	shlq	$1, %rcx
    24f6: 48 01 c8                     	addq	%rcx, %rax
    24f9: 4c 8b 9d d8 fe ff ff         	movq	-296(%rbp), %r11
    2500: 41 83 e3 00                  	andl	$0, %r11d
    2504: 41 89 c3                     	movl	%eax, %r11d
    2507: 49 f7 d3                     	notq	%r11
    250a: 4c 89 9d d8 fe ff ff         	movq	%r11, -296(%rbp)
    2511: 48 89 85 d8 fe ff ff         	movq	%rax, -296(%rbp)
    2518: 48 b8 00 00 00 00 00 00 00 c0	movabsq	$-4611686018427387904, %rax ## imm = 0xC000000000000000
    2522: 48 23 45 d8                  	andq	-40(%rbp), %rax
    2526: 48 b9 00 00 00 00 00 00 00 c0	movabsq	$-4611686018427387904, %rcx ## imm = 0xC000000000000000
    2530: 48 39 c8                     	cmpq	%rcx, %rax
    2533: 0f 94 c0                     	sete	%al
    2536: 24 01                        	andb	$1, %al
    2538: 0f b6 c0                     	movzbl	%al, %eax
    253b: 48 b9 00 00 00 00 00 00 00 c0	movabsq	$-4611686018427387904, %rcx ## imm = 0xC000000000000000
    2545: 48 23 4d d8                  	andq	-40(%rbp), %rcx
    2549: 48 83 f9 00                  	cmpq	$0, %rcx
    254d: 0f 94 c1                     	sete	%cl
    2550: 80 e1 01                     	andb	$1, %cl
    2553: 0f b6 c9                     	movzbl	%cl, %ecx
    2556: 09 c8                        	orl	%ecx, %eax
    2558: 83 f8 00                     	cmpl	$0, %eax
    255b: 0f 95 c0                     	setne	%al
    255e: 34 ff                        	xorb	$-1, %al
    2560: 24 01                        	andb	$1, %al
    2562: 0f b6 c8                     	movzbl	%al, %ecx
    2565: 0f b6 45 ea                  	movzbl	-22(%rbp), %eax
    2569: 09 c8                        	orl	%ecx, %eax
    256b: 44 8a 5d ea                  	movb	-22(%rbp), %r11b
    256f: 41 82                        	<unknown>
    2571: e3 f0                        	jrcxz	0x2563 <_fix_mul+0x873>
    2573: 41 88 c3                     	movb	%al, %r11b
    2576: 49 f7 d3                     	notq	%r11
    2579: 44 88 5d ea                  	movb	%r11b, -22(%rbp)
    257d: 88 45 ea                     	movb	%al, -22(%rbp)
    2580: 48 8b 85 d8 fe ff ff         	movq	-296(%rbp), %rax
    2587: 4c 8b 9d d0 fe ff ff         	movq	-304(%rbp), %r11
    258e: 41 83 e3 00                  	andl	$0, %r11d
    2592: 41 89 c3                     	movl	%eax, %r11d
    2595: 49 f7 d3                     	notq	%r11
    2598: 4c 89 9d d0 fe ff ff         	movq	%r11, -304(%rbp)
    259f: 48 89 85 d0 fe ff ff         	movq	%rax, -304(%rbp)
    25a6: 48 8b 85 d0 fe ff ff         	movq	-304(%rbp), %rax
    25ad: 48 c1 e8 02                  	shrq	$2, %rax
    25b1: 4c 8b 9d 90 fb ff ff         	movq	-1136(%rbp), %r11
    25b8: 41 83 e3 00                  	andl	$0, %r11d
    25bc: 41 89 c3                     	movl	%eax, %r11d
    25bf: 49 f7 d3                     	notq	%r11
    25c2: 4c 89 9d 90 fb ff ff         	movq	%r11, -1136(%rbp)
    25c9: 48 89 85 90 fb ff ff         	movq	%rax, -1136(%rbp)
    25d0: 48 c7 85 b0 fe ff ff 01 00 00 00     	movq	$1, -336(%rbp)
    25db: 48 8b 45 f8                  	movq	-8(%rbp), %rax
    25df: 48 c1 e8 3f                  	shrq	$63, %rax
    25e3: 48 83 f8 00                  	cmpq	$0, %rax
    25e7: 0f 95 c0                     	setne	%al
    25ea: 34 ff                        	xorb	$-1, %al
    25ec: 34 ff                        	xorb	$-1, %al
    25ee: 24 01                        	andb	$1, %al
    25f0: 0f b6 c0                     	movzbl	%al, %eax
    25f3: 48 98                        	cltq
    25f5: 48 33 85 b0 fe ff ff         	xorq	-336(%rbp), %rax
    25fc: 48 2b 85 b0 fe ff ff         	subq	-336(%rbp), %rax
    2603: 4c 8b 9d a8 fe ff ff         	movq	-344(%rbp), %r11
    260a: 41 83 e3 00                  	andl	$0, %r11d
    260e: 41 89 c3                     	movl	%eax, %r11d
    2611: 49 f7 d3                     	notq	%r11
    2614: 4c 89 9d a8 fe ff ff         	movq	%r11, -344(%rbp)
    261b: 48 89 85 a8 fe ff ff         	movq	%rax, -344(%rbp)
    2622: 48 8b 85 a8 fe ff ff         	movq	-344(%rbp), %rax
    2629: 48 8b 4d f8                  	movq	-8(%rbp), %rcx
    262d: 48 83 f1 ff                  	xorq	$-1, %rcx
    2631: 48 83 c1 01                  	addq	$1, %rcx
    2635: 48 21 c8                     	andq	%rcx, %rax
    2638: 48 c7 85 a0 fe ff ff 01 00 00 00     	movq	$1, -352(%rbp)
    2643: 48 8b 4d f8                  	movq	-8(%rbp), %rcx
    2647: 48 c1 e9 3f                  	shrq	$63, %rcx
    264b: 48 83 f9 00                  	cmpq	$0, %rcx
    264f: 0f 95 c1                     	setne	%cl
    2652: 80 f1 ff                     	xorb	$-1, %cl
    2655: 80 f1 ff                     	xorb	$-1, %cl
    2658: 80 f1 ff                     	xorb	$-1, %cl
    265b: 80 e1 01                     	andb	$1, %cl
    265e: 0f b6 c9                     	movzbl	%cl, %ecx
    2661: 48 63 c9                     	movslq	%ecx, %rcx
    2664: 48 33 8d a0 fe ff ff         	xorq	-352(%rbp), %rcx
    266b: 48 2b 8d a0 fe ff ff         	subq	-352(%rbp), %rcx
    2672: 4c 8b 9d 98 fe ff ff         	movq	-360(%rbp), %r11
    2679: 41 83 e3 00                  	andl	$0, %r11d
    267d: 41 89 cb                     	movl	%ecx, %r11d
    2680: 49 f7 d3                     	notq	%r11
    2683: 4c 89 9d 98 fe ff ff         	movq	%r11, -360(%rbp)
    268a: 48 89 8d 98 fe ff ff         	movq	%rcx, -360(%rbp)
    2691: 48 8b 8d 98 fe ff ff         	movq	-360(%rbp), %rcx
    2698: 48 23 4d f8                  	andq	-8(%rbp), %rcx
    269c: 48 09 c8                     	orq	%rcx, %rax
    269f: 4c 8b 9d b8 fe ff ff         	movq	-328(%rbp), %r11
    26a6: 41 83 e3 00                  	andl	$0, %r11d
    26aa: 41 89 c3                     	movl	%eax, %r11d
    26ad: 49 f7 d3                     	notq	%r11
    26b0: 4c 89 9d b8 fe ff ff         	movq	%r11, -328(%rbp)
    26b7: 48 89 85 b8 fe ff ff         	movq	%rax, -328(%rbp)
    26be: 48 c7 85 88 fe ff ff 01 00 00 00     	movq	$1, -376(%rbp)
    26c9: 48 8b 45 f0                  	movq	-16(%rbp), %rax
    26cd: 48 c1 e8 3f                  	shrq	$63, %rax
    26d1: 48 83 f8 00                  	cmpq	$0, %rax
    26d5: 0f 95 c0                     	setne	%al
    26d8: 34 ff                        	xorb	$-1, %al
    26da: 34 ff                        	xorb	$-1, %al
    26dc: 24 01                        	andb	$1, %al
    26de: 0f b6 c0                     	movzbl	%al, %eax
    26e1: 48 98                        	cltq
    26e3: 48 33 85 88 fe ff ff         	xorq	-376(%rbp), %rax
    26ea: 48 2b 85 88 fe ff ff         	subq	-376(%rbp), %rax
    26f1: 4c 8b 9d 80 fe ff ff         	movq	-384(%rbp), %r11
    26f8: 41 83 e3 00                  	andl	$0, %r11d
    26fc: 41 89 c3                     	movl	%eax, %r11d
    26ff: 49 f7 d3                     	notq	%r11
    2702: 4c 89 9d 80 fe ff ff         	movq	%r11, -384(%rbp)
    2709: 48 89 85 80 fe ff ff         	movq	%rax, -384(%rbp)
    2710: 48 8b 85 80 fe ff ff         	movq	-384(%rbp), %rax
    2717: 48 8b 4d f0                  	movq	-16(%rbp), %rcx
    271b: 48 83 f1 ff                  	xorq	$-1, %rcx
    271f: 48 83 c1 01                  	addq	$1, %rcx
    2723: 48 21 c8                     	andq	%rcx, %rax
    2726: 48 c7 85 78 fe ff ff 01 00 00 00     	movq	$1, -392(%rbp)
    2731: 48 8b 4d f0                  	movq	-16(%rbp), %rcx
    2735: 48 c1 e9 3f                  	shrq	$63, %rcx
    2739: 48 83 f9 00                  	cmpq	$0, %rcx
    273d: 0f 95 c1                     	setne	%cl
    2740: 80 f1 ff                     	xorb	$-1, %cl
    2743: 80 f1 ff                     	xorb	$-1, %cl
    2746: 80 f1 ff                     	xorb	$-1, %cl
    2749: 80 e1 01                     	andb	$1, %cl
    274c: 0f b6 c9                     	movzbl	%cl, %ecx
    274f: 48 63 c9                     	movslq	%ecx, %rcx
    2752: 48 33 8d 78 fe ff ff         	xorq	-392(%rbp), %rcx
    2759: 48 2b 8d 78 fe ff ff         	subq	-392(%rbp), %rcx
    2760: 4c 8b 9d 70 fe ff ff         	movq	-400(%rbp), %r11
    2767: 41 83 e3 00                  	andl	$0, %r11d
    276b: 41 89 cb                     	movl	%ecx, %r11d
    276e: 49 f7 d3                     	notq	%r11
    2771: 4c 89 9d 70 fe ff ff         	movq	%r11, -400(%rbp)
    2778: 48 89 8d 70 fe ff ff         	movq	%rcx, -400(%rbp)
    277f: 48 8b 8d 70 fe ff ff         	movq	-400(%rbp), %rcx
    2786: 48 23 4d f0                  	andq	-16(%rbp), %rcx
    278a: 48 09 c8                     	orq	%rcx, %rax
    278d: 4c 8b 9d 90 fe ff ff         	movq	-368(%rbp), %r11
    2794: 41 83 e3 00                  	andl	$0, %r11d
    2798: 41 89 c3                     	movl	%eax, %r11d
    279b: 49 f7 d3                     	notq	%r11
    279e: 4c 89 9d 90 fe ff ff         	movq	%r11, -368(%rbp)
    27a5: 48 89 85 90 fe ff ff         	movq	%rax, -368(%rbp)
    27ac: 48 8b 85 b8 fe ff ff         	movq	-328(%rbp), %rax
    27b3: 48 c1 e8 20                  	shrq	$32, %rax
    27b7: 4c 8b 9d 68 fe ff ff         	movq	-408(%rbp), %r11
    27be: 41 83 e3 00                  	andl	$0, %r11d
    27c2: 41 89 c3                     	movl	%eax, %r11d
    27c5: 49 f7 d3                     	notq	%r11
    27c8: 4c 89 9d 68 fe ff ff         	movq	%r11, -408(%rbp)
    27cf: 48 89 85 68 fe ff ff         	movq	%rax, -408(%rbp)
    27d6: 48 b8 ff ff ff ff 00 00 00 00	movabsq	$4294967295, %rax       ## imm = 0xFFFFFFFF
    27e0: 48 23 85 b8 fe ff ff         	andq	-328(%rbp), %rax
    27e7: 4c 8b 9d 60 fe ff ff         	movq	-416(%rbp), %r11
    27ee: 41 83 e3 00                  	andl	$0, %r11d
    27f2: 41 89 c3                     	movl	%eax, %r11d
    27f5: 49 f7 d3                     	notq	%r11
    27f8: 4c 89 9d 60 fe ff ff         	movq	%r11, -416(%rbp)
    27ff: 48 89 85 60 fe ff ff         	movq	%rax, -416(%rbp)
    2806: 48 8b 85 90 fe ff ff         	movq	-368(%rbp), %rax
    280d: 48 c1 e8 20                  	shrq	$32, %rax
    2811: 4c 8b 9d 58 fe ff ff         	movq	-424(%rbp), %r11
    2818: 41 83 e3 00                  	andl	$0, %r11d
    281c: 41 89 c3                     	movl	%eax, %r11d
    281f: 49 f7 d3                     	notq	%r11
    2822: 4c 89 9d 58 fe ff ff         	movq	%r11, -424(%rbp)
    2829: 48 89 85 58 fe ff ff         	movq	%rax, -424(%rbp)
    2830: 48 b8 ff ff ff ff 00 00 00 00	movabsq	$4294967295, %rax       ## imm = 0xFFFFFFFF
    283a: 48 23 85 90 fe ff ff         	andq	-368(%rbp), %rax
    2841: 4c 8b 9d 50 fe ff ff         	movq	-432(%rbp), %r11
    2848: 41 83 e3 00                  	andl	$0, %r11d
    284c: 41 89 c3                     	movl	%eax, %r11d
    284f: 49 f7 d3                     	notq	%r11
    2852: 4c 89 9d 50 fe ff ff         	movq	%r11, -432(%rbp)
    2859: 48 89 85 50 fe ff ff         	movq	%rax, -432(%rbp)
    2860: 48 8b 85 60 fe ff ff         	movq	-416(%rbp), %rax
    2867: 48 0f af 85 50 fe ff ff      	imulq	-432(%rbp), %rax
    286f: 4c 8b 9d 48 fe ff ff         	movq	-440(%rbp), %r11
    2876: 41 83 e3 00                  	andl	$0, %r11d
    287a: 41 89 c3                     	movl	%eax, %r11d
    287d: 49 f7 d3                     	notq	%r11
    2880: 4c 89 9d 48 fe ff ff         	movq	%r11, -440(%rbp)
    2887: 48 89 85 48 fe ff ff         	movq	%rax, -440(%rbp)
    288e: 48 8b 85 60 fe ff ff         	movq	-416(%rbp), %rax
    2895: 48 0f af 85 58 fe ff ff      	imulq	-424(%rbp), %rax
    289d: 4c 8b 9d 40 fe ff ff         	movq	-448(%rbp), %r11
    28a4: 41 83 e3 00                  	andl	$0, %r11d
    28a8: 41 89 c3                     	movl	%eax, %r11d
    28ab: 49 f7 d3                     	notq	%r11
    28ae: 4c 89 9d 40 fe ff ff         	movq	%r11, -448(%rbp)
    28b5: 48 89 85 40 fe ff ff         	movq	%rax, -448(%rbp)
    28bc: 48 8b 85 68 fe ff ff         	movq	-408(%rbp), %rax
    28c3: 48 0f af 85 50 fe ff ff      	imulq	-432(%rbp), %rax
    28cb: 4c 8b 9d 38 fe ff ff         	movq	-456(%rbp), %r11
    28d2: 41 83 e3 00                  	andl	$0, %r11d
    28d6: 41 89 c3                     	movl	%eax, %r11d
    28d9: 49 f7 d3                     	notq	%r11
    28dc: 4c 89 9d 38 fe ff ff         	movq	%r11, -456(%rbp)
    28e3: 48 89 85 38 fe ff ff         	movq	%rax, -456(%rbp)
    28ea: 48 8b 85 68 fe ff ff         	movq	-408(%rbp), %rax
    28f1: 48 0f af 85 58 fe ff ff      	imulq	-424(%rbp), %rax
    28f9: 4c 8b 9d 30 fe ff ff         	movq	-464(%rbp), %r11
    2900: 41 83 e3 00                  	andl	$0, %r11d
    2904: 41 89 c3                     	movl	%eax, %r11d
    2907: 49 f7 d3                     	notq	%r11
    290a: 4c 89 9d 30 fe ff ff         	movq	%r11, -464(%rbp)
    2911: 48 89 85 30 fe ff ff         	movq	%rax, -464(%rbp)
    2918: 48 8b 85 48 fe ff ff         	movq	-440(%rbp), %rax
    291f: 48 b9 ff ff ff ff 00 00 00 00	movabsq	$4294967295, %rcx       ## imm = 0xFFFFFFFF
    2929: 48 23 8d 40 fe ff ff         	andq	-448(%rbp), %rcx
    2930: 48 c1 e1 20                  	shlq	$32, %rcx
    2934: 48 01 c8                     	addq	%rcx, %rax
    2937: 48 b9 ff ff ff ff 00 00 00 00	movabsq	$4294967295, %rcx       ## imm = 0xFFFFFFFF
    2941: 48 23 8d 38 fe ff ff         	andq	-456(%rbp), %rcx
    2948: 48 c1 e1 20                  	shlq	$32, %rcx
    294c: 48 01 c8                     	addq	%rcx, %rax
    294f: 4c 8b 9d c0 fe ff ff         	movq	-320(%rbp), %r11
    2956: 41 83 e3 00                  	andl	$0, %r11d
    295a: 41 89 c3                     	movl	%eax, %r11d
    295d: 49 f7 d3                     	notq	%r11
    2960: 4c 89 9d c0 fe ff ff         	movq	%r11, -320(%rbp)
    2967: 48 89 85 c0 fe ff ff         	movq	%rax, -320(%rbp)
    296e: 48 8b 85 48 fe ff ff         	movq	-440(%rbp), %rax
    2975: 48 c1 e8 20                  	shrq	$32, %rax
    2979: 48 b9 ff ff ff ff 00 00 00 00	movabsq	$4294967295, %rcx       ## imm = 0xFFFFFFFF
    2983: 48 23 8d 40 fe ff ff         	andq	-448(%rbp), %rcx
    298a: 48 01 c8                     	addq	%rcx, %rax
    298d: 48 b9 ff ff ff ff 00 00 00 00	movabsq	$4294967295, %rcx       ## imm = 0xFFFFFFFF
    2997: 48 23 8d 38 fe ff ff         	andq	-456(%rbp), %rcx
    299e: 48 01 c8                     	addq	%rcx, %rax
    29a1: 48 b9 00 00 00 00 ff ff ff ff	movabsq	$-4294967296, %rcx      ## imm = 0xFFFFFFFF00000000
    29ab: 48 21 c8                     	andq	%rcx, %rax
    29ae: 48 c1 e8 20                  	shrq	$32, %rax
    29b2: 4c 8b 9d 28 fe ff ff         	movq	-472(%rbp), %r11
    29b9: 41 83 e3 00                  	andl	$0, %r11d
    29bd: 41 89 c3                     	movl	%eax, %r11d
    29c0: 49 f7 d3                     	notq	%r11
    29c3: 4c 89 9d 28 fe ff ff         	movq	%r11, -472(%rbp)
    29ca: 48 89 85 28 fe ff ff         	movq	%rax, -472(%rbp)
    29d1: 48 8b 85 28 fe ff ff         	movq	-472(%rbp), %rax
    29d8: 48 03 85 30 fe ff ff         	addq	-464(%rbp), %rax
    29df: 48 b9 00 00 00 00 ff ff ff ff	movabsq	$-4294967296, %rcx      ## imm = 0xFFFFFFFF00000000
    29e9: 48 23 8d 40 fe ff ff         	andq	-448(%rbp), %rcx
    29f0: 48 c1 e9 20                  	shrq	$32, %rcx
    29f4: 48 01 c8                     	addq	%rcx, %rax
    29f7: 48 b9 00 00 00 00 ff ff ff ff	movabsq	$-4294967296, %rcx      ## imm = 0xFFFFFFFF00000000
    2a01: 48 23 8d 38 fe ff ff         	andq	-456(%rbp), %rcx
    2a08: 48 c1 e9 20                  	shrq	$32, %rcx
    2a0c: 48 01 c8                     	addq	%rcx, %rax
    2a0f: 4c 8b 9d c8 fe ff ff         	movq	-312(%rbp), %r11
    2a16: 41 83 e3 00                  	andl	$0, %r11d
    2a1a: 41 89 c3                     	movl	%eax, %r11d
    2a1d: 49 f7 d3                     	notq	%r11
    2a20: 4c 89 9d c8 fe ff ff         	movq	%r11, -312(%rbp)
    2a27: 48 89 85 c8 fe ff ff         	movq	%rax, -312(%rbp)
    2a2e: 48 8b 45 f8                  	movq	-8(%rbp), %rax
    2a32: 48 c1 e8 3f                  	shrq	$63, %rax
    2a36: 48 8b 4d f0                  	movq	-16(%rbp), %rcx
    2a3a: 48 c1 e9 3f                  	shrq	$63, %rcx
    2a3e: 48 31 c8                     	xorq	%rcx, %rax
    2a41: 44 8a 9d 27 fe ff ff         	movb	-473(%rbp), %r11b
    2a48: 41 82                        	<unknown>
    2a4a: e3 f0                        	jrcxz	0x2a3c <_fix_mul+0xd4c>
    2a4c: 41 88 c3                     	movb	%al, %r11b
    2a4f: 49 f7 d3                     	notq	%r11
    2a52: 44 88 9d 27 fe ff ff         	movb	%r11b, -473(%rbp)
    2a59: 88 85 27 fe ff ff            	movb	%al, -473(%rbp)
    2a5f: 48 c7 85 18 fe ff ff 01 00 00 00     	movq	$1, -488(%rbp)
    2a6a: 80 bd 27 fe ff ff 00         	cmpb	$0, -473(%rbp)
    2a71: 0f 95 c0                     	setne	%al
    2a74: 34 ff                        	xorb	$-1, %al
    2a76: 34 ff                        	xorb	$-1, %al
    2a78: 24 01                        	andb	$1, %al
    2a7a: 0f b6 c0                     	movzbl	%al, %eax
    2a7d: 48 98                        	cltq
    2a7f: 48 33 85 18 fe ff ff         	xorq	-488(%rbp), %rax
    2a86: 48 2b 85 18 fe ff ff         	subq	-488(%rbp), %rax
    2a8d: 4c 8b 9d 10 fe ff ff         	movq	-496(%rbp), %r11
    2a94: 41 83 e3 00                  	andl	$0, %r11d
    2a98: 41 89 c3                     	movl	%eax, %r11d
    2a9b: 49 f7 d3                     	notq	%r11
    2a9e: 4c 89 9d 10 fe ff ff         	movq	%r11, -496(%rbp)
    2aa5: 48 89 85 10 fe ff ff         	movq	%rax, -496(%rbp)
    2aac: 48 8b 85 10 fe ff ff         	movq	-496(%rbp), %rax
    2ab3: 48 8b 8d c0 fe ff ff         	movq	-320(%rbp), %rcx
    2aba: 48 83 f1 ff                  	xorq	$-1, %rcx
    2abe: 48 83 c1 01                  	addq	$1, %rcx
    2ac2: 48 21 c8                     	andq	%rcx, %rax
    2ac5: 48 c7 85 08 fe ff ff 01 00 00 00     	movq	$1, -504(%rbp)
    2ad0: 80 bd 27 fe ff ff 00         	cmpb	$0, -473(%rbp)
    2ad7: 0f 95 c1                     	setne	%cl
    2ada: 80 f1 ff                     	xorb	$-1, %cl
    2add: 80 f1 ff                     	xorb	$-1, %cl
    2ae0: 80 f1 ff                     	xorb	$-1, %cl
    2ae3: 80 e1 01                     	andb	$1, %cl
    2ae6: 0f b6 c9                     	movzbl	%cl, %ecx
    2ae9: 48 63 c9                     	movslq	%ecx, %rcx
    2aec: 48 33 8d 08 fe ff ff         	xorq	-504(%rbp), %rcx
    2af3: 48 2b 8d 08 fe ff ff         	subq	-504(%rbp), %rcx
    2afa: 4c 8b 9d 00 fe ff ff         	movq	-512(%rbp), %r11
    2b01: 41 83 e3 00                  	andl	$0, %r11d
    2b05: 41 89 cb                     	movl	%ecx, %r11d
    2b08: 49 f7 d3                     	notq	%r11
    2b0b: 4c 89 9d 00 fe ff ff         	movq	%r11, -512(%rbp)
    2b12: 48 89 8d 00 fe ff ff         	movq	%rcx, -512(%rbp)
    2b19: 48 8b 8d 00 fe ff ff         	movq	-512(%rbp), %rcx
    2b20: 48 23 8d c0 fe ff ff         	andq	-320(%rbp), %rcx
    2b27: 48 09 c8                     	orq	%rcx, %rax
    2b2a: 4c 8b 9d c0 fe ff ff         	movq	-320(%rbp), %r11
    2b31: 41 83 e3 00                  	andl	$0, %r11d
    2b35: 41 89 c3                     	movl	%eax, %r11d
    2b38: 49 f7 d3                     	notq	%r11
    2b3b: 4c 89 9d c0 fe ff ff         	movq	%r11, -320(%rbp)
    2b42: 48 89 85 c0 fe ff ff         	movq	%rax, -320(%rbp)
    2b49: 48 c7 85 f8 fd ff ff 01 00 00 00     	movq	$1, -520(%rbp)
    2b54: 80 bd 27 fe ff ff 00         	cmpb	$0, -473(%rbp)
    2b5b: 0f 95 c0                     	setne	%al
    2b5e: 34 ff                        	xorb	$-1, %al
    2b60: 34 ff                        	xorb	$-1, %al
    2b62: 24 01                        	andb	$1, %al
    2b64: 0f b6 c0                     	movzbl	%al, %eax
    2b67: 48 98                        	cltq
    2b69: 48 33 85 f8 fd ff ff         	xorq	-520(%rbp), %rax
    2b70: 48 2b 85 f8 fd ff ff         	subq	-520(%rbp), %rax
    2b77: 4c 8b 9d f0 fd ff ff         	movq	-528(%rbp), %r11
    2b7e: 41 83 e3 00                  	andl	$0, %r11d
    2b82: 41 89 c3                     	movl	%eax, %r11d
    2b85: 49 f7 d3                     	notq	%r11
    2b88: 4c 89 9d f0 fd ff ff         	movq	%r11, -528(%rbp)
    2b8f: 48 89 85 f0 fd ff ff         	movq	%rax, -528(%rbp)
    2b96: 48 8b 85 f0 fd ff ff         	movq	-528(%rbp), %rax
    2b9d: 48 8b 8d c8 fe ff ff         	movq	-312(%rbp), %rcx
    2ba4: 48 83 f1 ff                  	xorq	$-1, %rcx
    2ba8: 48 83 bd c0 fe ff ff 00      	cmpq	$0, -320(%rbp)
    2bb0: 0f 94 c2                     	sete	%dl
    2bb3: 80 e2 01                     	andb	$1, %dl
    2bb6: 0f b6 d2                     	movzbl	%dl, %edx
    2bb9: 48 63 d2                     	movslq	%edx, %rdx
    2bbc: 48 01 d1                     	addq	%rdx, %rcx
    2bbf: 48 21 c8                     	andq	%rcx, %rax
    2bc2: 48 c7 85 e8 fd ff ff 01 00 00 00     	movq	$1, -536(%rbp)
    2bcd: 80 bd 27 fe ff ff 00         	cmpb	$0, -473(%rbp)
    2bd4: 0f 95 c1                     	setne	%cl
    2bd7: 80 f1 ff                     	xorb	$-1, %cl
    2bda: 80 f1 ff                     	xorb	$-1, %cl
    2bdd: 80 f1 ff                     	xorb	$-1, %cl
    2be0: 80 e1 01                     	andb	$1, %cl
    2be3: 0f b6 c9                     	movzbl	%cl, %ecx
    2be6: 48 63 c9                     	movslq	%ecx, %rcx
    2be9: 48 33 8d e8 fd ff ff         	xorq	-536(%rbp), %rcx
    2bf0: 48 2b 8d e8 fd ff ff         	subq	-536(%rbp), %rcx
    2bf7: 4c 8b 9d e0 fd ff ff         	movq	-544(%rbp), %r11
    2bfe: 41 83 e3 00                  	andl	$0, %r11d
    2c02: 41 89 cb                     	movl	%ecx, %r11d
    2c05: 49 f7 d3                     	notq	%r11
    2c08: 4c 89 9d e0 fd ff ff         	movq	%r11, -544(%rbp)
    2c0f: 48 89 8d e0 fd ff ff         	movq	%rcx, -544(%rbp)
    2c16: 48 8b 8d e0 fd ff ff         	movq	-544(%rbp), %rcx
    2c1d: 48 23 8d c8 fe ff ff         	andq	-312(%rbp), %rcx
    2c24: 48 09 c8                     	orq	%rcx, %rax
    2c27: 4c 8b 9d c8 fe ff ff         	movq	-312(%rbp), %r11
    2c2e: 41 83 e3 00                  	andl	$0, %r11d
    2c32: 41 89 c3                     	movl	%eax, %r11d
    2c35: 49 f7 d3                     	notq	%r11
    2c38: 4c 89 9d c8 fe ff ff         	movq	%r11, -312(%rbp)
    2c3f: 48 89 85 c8 fe ff ff         	movq	%rax, -312(%rbp)
    2c46: c7 85 dc fd ff ff 00 00 00 00	movl	$0, -548(%rbp)
    2c50: 48 8b bd c0 fe ff ff         	movq	-320(%rbp), %rdi
    2c57: be 3f 00 00 00               	movl	$63, %esi
    2c5c: e8 00 00 00 00               	callq	0x2c61 <_fix_mul+0xf71>
    2c61: 4c 8b 9d d0 fd ff ff         	movq	-560(%rbp), %r11
    2c68: 41 83 e3 00                  	andl	$0, %r11d
    2c6c: 41 89 c3                     	movl	%eax, %r11d
    2c6f: 49 f7 d3                     	notq	%r11
    2c72: 4c 89 9d d0 fd ff ff         	movq	%r11, -560(%rbp)
    2c79: 48 89 85 d0 fd ff ff         	movq	%rax, -560(%rbp)
    2c80: 48 8b 85 d0 fd ff ff         	movq	-560(%rbp), %rax
    2c87: 48 8b 8d c8 fe ff ff         	movq	-312(%rbp), %rcx
    2c8e: 48 c1 e1 01                  	shlq	$1, %rcx
    2c92: 48 01 c8                     	addq	%rcx, %rax
    2c95: 4c 8b 9d c8 fd ff ff         	movq	-568(%rbp), %r11
    2c9c: 41 83 e3 00                  	andl	$0, %r11d
    2ca0: 41 89 c3                     	movl	%eax, %r11d
    2ca3: 49 f7 d3                     	notq	%r11
    2ca6: 4c 89 9d c8 fd ff ff         	movq	%r11, -568(%rbp)
    2cad: 48 89 85 c8 fd ff ff         	movq	%rax, -568(%rbp)
    2cb4: 48 b8 00 00 00 00 00 00 00 c0	movabsq	$-4611686018427387904, %rax ## imm = 0xC000000000000000
    2cbe: 48 23 85 c8 fe ff ff         	andq	-312(%rbp), %rax
    2cc5: 48 b9 00 00 00 00 00 00 00 c0	movabsq	$-4611686018427387904, %rcx ## imm = 0xC000000000000000
    2ccf: 48 39 c8                     	cmpq	%rcx, %rax
    2cd2: 0f 94 c0                     	sete	%al
    2cd5: 24 01                        	andb	$1, %al
    2cd7: 0f b6 c0                     	movzbl	%al, %eax
    2cda: 48 b9 00 00 00 00 00 00 00 c0	movabsq	$-4611686018427387904, %rcx ## imm = 0xC000000000000000
    2ce4: 48 23 8d c8 fe ff ff         	andq	-312(%rbp), %rcx
    2ceb: 48 83 f9 00                  	cmpq	$0, %rcx
    2cef: 0f 94 c1                     	sete	%cl
    2cf2: 80 e1 01                     	andb	$1, %cl
    2cf5: 0f b6 c9                     	movzbl	%cl, %ecx
    2cf8: 09 c8                        	orl	%ecx, %eax
    2cfa: 83 f8 00                     	cmpl	$0, %eax
    2cfd: 0f 95 c0                     	setne	%al
    2d00: 34 ff                        	xorb	$-1, %al
    2d02: 24 01                        	andb	$1, %al
    2d04: 0f b6 c8                     	movzbl	%al, %ecx
    2d07: 0f b6 45 ea                  	movzbl	-22(%rbp), %eax
    2d0b: 09 c8                        	orl	%ecx, %eax
    2d0d: 44 8a 5d ea                  	movb	-22(%rbp), %r11b
    2d11: 41 82                        	<unknown>
    2d13: e3 f0                        	jrcxz	0x2d05 <_fix_mul+0x1015>
    2d15: 41 88 c3                     	movb	%al, %r11b
    2d18: 49 f7 d3                     	notq	%r11
    2d1b: 44 88 5d ea                  	movb	%r11b, -22(%rbp)
    2d1f: 88 45 ea                     	movb	%al, -22(%rbp)
    2d22: 48 8b 85 c8 fd ff ff         	movq	-568(%rbp), %rax
    2d29: 4c 8b 9d c0 fd ff ff         	movq	-576(%rbp), %r11
    2d30: 41 83 e3 00                  	andl	$0, %r11d
    2d34: 41 89 c3                     	movl	%eax, %r11d
    2d37: 49 f7 d3                     	notq	%r11
    2d3a: 4c 89 9d c0 fd ff ff         	movq	%r11, -576(%rbp)
    2d41: 48 89 85 c0 fd ff ff         	movq	%rax, -576(%rbp)
    2d48: 48 8b 85 c0 fd ff ff         	movq	-576(%rbp), %rax
    2d4f: 48 83 e0 02                  	andq	$2, %rax
    2d53: 48 83 f8 00                  	cmpq	$0, %rax
    2d57: 0f 95 c0                     	setne	%al
    2d5a: 34 ff                        	xorb	$-1, %al
    2d5c: 34 ff                        	xorb	$-1, %al
    2d5e: 24 01                        	andb	$1, %al
    2d60: 0f b6 c0                     	movzbl	%al, %eax
    2d63: 89 85 88 fb ff ff            	movl	%eax, -1144(%rbp)
    2d69: 48 c7 85 a0 fd ff ff 01 00 00 00     	movq	$1, -608(%rbp)
    2d74: 48 8b 45 f8                  	movq	-8(%rbp), %rax
    2d78: 48 c1 e8 3f                  	shrq	$63, %rax
    2d7c: 48 83 f8 00                  	cmpq	$0, %rax
    2d80: 0f 95 c0                     	setne	%al
    2d83: 34 ff                        	xorb	$-1, %al
    2d85: 34 ff                        	xorb	$-1, %al
    2d87: 24 01                        	andb	$1, %al
    2d89: 0f b6 c0                     	movzbl	%al, %eax
    2d8c: 48 98                        	cltq
    2d8e: 48 33 85 a0 fd ff ff         	xorq	-608(%rbp), %rax
    2d95: 48 2b 85 a0 fd ff ff         	subq	-608(%rbp), %rax
    2d9c: 4c 8b 9d 98 fd ff ff         	movq	-616(%rbp), %r11
    2da3: 41 83 e3 00                  	andl	$0, %r11d
    2da7: 41 89 c3                     	movl	%eax, %r11d
    2daa: 49 f7 d3                     	notq	%r11
    2dad: 4c 89 9d 98 fd ff ff         	movq	%r11, -616(%rbp)
    2db4: 48 89 85 98 fd ff ff         	movq	%rax, -616(%rbp)
    2dbb: 48 8b 85 98 fd ff ff         	movq	-616(%rbp), %rax
    2dc2: 48 8b 4d f8                  	movq	-8(%rbp), %rcx
    2dc6: 48 83 f1 ff                  	xorq	$-1, %rcx
    2dca: 48 83 c1 01                  	addq	$1, %rcx
    2dce: 48 21 c8                     	andq	%rcx, %rax
    2dd1: 48 c7 85 90 fd ff ff 01 00 00 00     	movq	$1, -624(%rbp)
    2ddc: 48 8b 4d f8                  	movq	-8(%rbp), %rcx
    2de0: 48 c1 e9 3f                  	shrq	$63, %rcx
    2de4: 48 83 f9 00                  	cmpq	$0, %rcx
    2de8: 0f 95 c1                     	setne	%cl
    2deb: 80 f1 ff                     	xorb	$-1, %cl
    2dee: 80 f1 ff                     	xorb	$-1, %cl
    2df1: 80 f1 ff                     	xorb	$-1, %cl
    2df4: 80 e1 01                     	andb	$1, %cl
    2df7: 0f b6 c9                     	movzbl	%cl, %ecx
    2dfa: 48 63 c9                     	movslq	%ecx, %rcx
    2dfd: 48 33 8d 90 fd ff ff         	xorq	-624(%rbp), %rcx
    2e04: 48 2b 8d 90 fd ff ff         	subq	-624(%rbp), %rcx
    2e0b: 4c 8b 9d 88 fd ff ff         	movq	-632(%rbp), %r11
    2e12: 41 83 e3 00                  	andl	$0, %r11d
    2e16: 41 89 cb                     	movl	%ecx, %r11d
    2e19: 49 f7 d3                     	notq	%r11
    2e1c: 4c 89 9d 88 fd ff ff         	movq	%r11, -632(%rbp)
    2e23: 48 89 8d 88 fd ff ff         	movq	%rcx, -632(%rbp)
    2e2a: 48 8b 8d 88 fd ff ff         	movq	-632(%rbp), %rcx
    2e31: 48 23 4d f8                  	andq	-8(%rbp), %rcx
    2e35: 48 09 c8                     	orq	%rcx, %rax
    2e38: 4c 8b 9d a8 fd ff ff         	movq	-600(%rbp), %r11
    2e3f: 41 83 e3 00                  	andl	$0, %r11d
    2e43: 41 89 c3                     	movl	%eax, %r11d
    2e46: 49 f7 d3                     	notq	%r11
    2e49: 4c 89 9d a8 fd ff ff         	movq	%r11, -600(%rbp)
    2e50: 48 89 85 a8 fd ff ff         	movq	%rax, -600(%rbp)
    2e57: 48 c7 85 78 fd ff ff 01 00 00 00     	movq	$1, -648(%rbp)
    2e62: 48 8b 45 f0                  	movq	-16(%rbp), %rax
    2e66: 48 c1 e8 3f                  	shrq	$63, %rax
    2e6a: 48 83 f8 00                  	cmpq	$0, %rax
    2e6e: 0f 95 c0                     	setne	%al
    2e71: 34 ff                        	xorb	$-1, %al
    2e73: 34 ff                        	xorb	$-1, %al
    2e75: 24 01                        	andb	$1, %al
    2e77: 0f b6 c0                     	movzbl	%al, %eax
    2e7a: 48 98                        	cltq
    2e7c: 48 33 85 78 fd ff ff         	xorq	-648(%rbp), %rax
    2e83: 48 2b 85 78 fd ff ff         	subq	-648(%rbp), %rax
    2e8a: 4c 8b 9d 70 fd ff ff         	movq	-656(%rbp), %r11
    2e91: 41 83 e3 00                  	andl	$0, %r11d
    2e95: 41 89 c3                     	movl	%eax, %r11d
    2e98: 49 f7 d3                     	notq	%r11
    2e9b: 4c 89 9d 70 fd ff ff         	movq	%r11, -656(%rbp)
    2ea2: 48 89 85 70 fd ff ff         	movq	%rax, -656(%rbp)
    2ea9: 48 8b 85 70 fd ff ff         	movq	-656(%rbp), %rax
    2eb0: 48 8b 4d f0                  	movq	-16(%rbp), %rcx
    2eb4: 48 83 f1 ff                  	xorq	$-1, %rcx
    2eb8: 48 83 c1 01                  	addq	$1, %rcx
    2ebc: 48 21 c8                     	andq	%rcx, %rax
    2ebf: 48 c7 85 68 fd ff ff 01 00 00 00     	movq	$1, -664(%rbp)
    2eca: 48 8b 4d f0                  	movq	-16(%rbp), %rcx
    2ece: 48 c1 e9 3f                  	shrq	$63, %rcx
    2ed2: 48 83 f9 00                  	cmpq	$0, %rcx
    2ed6: 0f 95 c1                     	setne	%cl
    2ed9: 80 f1 ff                     	xorb	$-1, %cl
    2edc: 80 f1 ff                     	xorb	$-1, %cl
    2edf: 80 f1 ff                     	xorb	$-1, %cl
    2ee2: 80 e1 01                     	andb	$1, %cl
    2ee5: 0f b6 c9                     	movzbl	%cl, %ecx
    2ee8: 48 63 c9                     	movslq	%ecx, %rcx
    2eeb: 48 33 8d 68 fd ff ff         	xorq	-664(%rbp), %rcx
    2ef2: 48 2b 8d 68 fd ff ff         	subq	-664(%rbp), %rcx
    2ef9: 4c 8b 9d 60 fd ff ff         	movq	-672(%rbp), %r11
    2f00: 41 83 e3 00                  	andl	$0, %r11d
    2f04: 41 89 cb                     	movl	%ecx, %r11d
    2f07: 49 f7 d3                     	notq	%r11
    2f0a: 4c 89 9d 60 fd ff ff         	movq	%r11, -672(%rbp)
    2f11: 48 89 8d 60 fd ff ff         	movq	%rcx, -672(%rbp)
    2f18: 48 8b 8d 60 fd ff ff         	movq	-672(%rbp), %rcx
    2f1f: 48 23 4d f0                  	andq	-16(%rbp), %rcx
    2f23: 48 09 c8                     	orq	%rcx, %rax
    2f26: 4c 8b 9d 80 fd ff ff         	movq	-640(%rbp), %r11
    2f2d: 41 83 e3 00                  	andl	$0, %r11d
    2f31: 41 89 c3                     	movl	%eax, %r11d
    2f34: 49 f7 d3                     	notq	%r11
    2f37: 4c 89 9d 80 fd ff ff         	movq	%r11, -640(%rbp)
    2f3e: 48 89 85 80 fd ff ff         	movq	%rax, -640(%rbp)
    2f45: 48 8b 85 a8 fd ff ff         	movq	-600(%rbp), %rax
    2f4c: 48 c1 e8 20                  	shrq	$32, %rax
    2f50: 4c 8b 9d 58 fd ff ff         	movq	-680(%rbp), %r11
    2f57: 41 83 e3 00                  	andl	$0, %r11d
    2f5b: 41 89 c3                     	movl	%eax, %r11d
    2f5e: 49 f7 d3                     	notq	%r11
    2f61: 4c 89 9d 58 fd ff ff         	movq	%r11, -680(%rbp)
    2f68: 48 89 85 58 fd ff ff         	movq	%rax, -680(%rbp)
    2f6f: 48 b8 ff ff ff ff 00 00 00 00	movabsq	$4294967295, %rax       ## imm = 0xFFFFFFFF
    2f79: 48 23 85 a8 fd ff ff         	andq	-600(%rbp), %rax
    2f80: 4c 8b 9d 50 fd ff ff         	movq	-688(%rbp), %r11
    2f87: 41 83 e3 00                  	andl	$0, %r11d
    2f8b: 41 89 c3                     	movl	%eax, %r11d
    2f8e: 49 f7 d3                     	notq	%r11
    2f91: 4c 89 9d 50 fd ff ff         	movq	%r11, -688(%rbp)
    2f98: 48 89 85 50 fd ff ff         	movq	%rax, -688(%rbp)
    2f9f: 48 8b 85 80 fd ff ff         	movq	-640(%rbp), %rax
    2fa6: 48 c1 e8 20                  	shrq	$32, %rax
    2faa: 4c 8b 9d 48 fd ff ff         	movq	-696(%rbp), %r11
    2fb1: 41 83 e3 00                  	andl	$0, %r11d
    2fb5: 41 89 c3                     	movl	%eax, %r11d
    2fb8: 49 f7 d3                     	notq	%r11
    2fbb: 4c 89 9d 48 fd ff ff         	movq	%r11, -696(%rbp)
    2fc2: 48 89 85 48 fd ff ff         	movq	%rax, -696(%rbp)
    2fc9: 48 b8 ff ff ff ff 00 00 00 00	movabsq	$4294967295, %rax       ## imm = 0xFFFFFFFF
    2fd3: 48 23 85 80 fd ff ff         	andq	-640(%rbp), %rax
    2fda: 4c 8b 9d 40 fd ff ff         	movq	-704(%rbp), %r11
    2fe1: 41 83 e3 00                  	andl	$0, %r11d
    2fe5: 41 89 c3                     	movl	%eax, %r11d
    2fe8: 49 f7 d3                     	notq	%r11
    2feb: 4c 89 9d 40 fd ff ff         	movq	%r11, -704(%rbp)
    2ff2: 48 89 85 40 fd ff ff         	movq	%rax, -704(%rbp)
    2ff9: 48 8b 85 50 fd ff ff         	movq	-688(%rbp), %rax
    3000: 48 0f af 85 40 fd ff ff      	imulq	-704(%rbp), %rax
    3008: 4c 8b 9d 38 fd ff ff         	movq	-712(%rbp), %r11
    300f: 41 83 e3 00                  	andl	$0, %r11d
    3013: 41 89 c3                     	movl	%eax, %r11d
    3016: 49 f7 d3                     	notq	%r11
    3019: 4c 89 9d 38 fd ff ff         	movq	%r11, -712(%rbp)
    3020: 48 89 85 38 fd ff ff         	movq	%rax, -712(%rbp)
    3027: 48 8b 85 50 fd ff ff         	movq	-688(%rbp), %rax
    302e: 48 0f af 85 48 fd ff ff      	imulq	-696(%rbp), %rax
    3036: 4c 8b 9d 30 fd ff ff         	movq	-720(%rbp), %r11
    303d: 41 83 e3 00                  	andl	$0, %r11d
    3041: 41 89 c3                     	movl	%eax, %r11d
    3044: 49 f7 d3                     	notq	%r11
    3047: 4c 89 9d 30 fd ff ff         	movq	%r11, -720(%rbp)
    304e: 48 89 85 30 fd ff ff         	movq	%rax, -720(%rbp)
    3055: 48 8b 85 58 fd ff ff         	movq	-680(%rbp), %rax
    305c: 48 0f af 85 40 fd ff ff      	imulq	-704(%rbp), %rax
    3064: 4c 8b 9d 28 fd ff ff         	movq	-728(%rbp), %r11
    306b: 41 83 e3 00                  	andl	$0, %r11d
    306f: 41 89 c3                     	movl	%eax, %r11d
    3072: 49 f7 d3                     	notq	%r11
    3075: 4c 89 9d 28 fd ff ff         	movq	%r11, -728(%rbp)
    307c: 48 89 85 28 fd ff ff         	movq	%rax, -728(%rbp)
    3083: 48 8b 85 58 fd ff ff         	movq	-680(%rbp), %rax
    308a: 48 0f af 85 48 fd ff ff      	imulq	-696(%rbp), %rax
    3092: 4c 8b 9d 20 fd ff ff         	movq	-736(%rbp), %r11
    3099: 41 83 e3 00                  	andl	$0, %r11d
    309d: 41 89 c3                     	movl	%eax, %r11d
    30a0: 49 f7 d3                     	notq	%r11
    30a3: 4c 89 9d 20 fd ff ff         	movq	%r11, -736(%rbp)
    30aa: 48 89 85 20 fd ff ff         	movq	%rax, -736(%rbp)
    30b1: 48 8b 85 38 fd ff ff         	movq	-712(%rbp), %rax
    30b8: 48 b9 ff ff ff ff 00 00 00 00	movabsq	$4294967295, %rcx       ## imm = 0xFFFFFFFF
    30c2: 48 23 8d 30 fd ff ff         	andq	-720(%rbp), %rcx
    30c9: 48 c1 e1 20                  	shlq	$32, %rcx
    30cd: 48 01 c8                     	addq	%rcx, %rax
    30d0: 48 b9 ff ff ff ff 00 00 00 00	movabsq	$4294967295, %rcx       ## imm = 0xFFFFFFFF
    30da: 48 23 8d 28 fd ff ff         	andq	-728(%rbp), %rcx
    30e1: 48 c1 e1 20                  	shlq	$32, %rcx
    30e5: 48 01 c8                     	addq	%rcx, %rax
    30e8: 4c 8b 9d b0 fd ff ff         	movq	-592(%rbp), %r11
    30ef: 41 83 e3 00                  	andl	$0, %r11d
    30f3: 41 89 c3                     	movl	%eax, %r11d
    30f6: 49 f7 d3                     	notq	%r11
    30f9: 4c 89 9d b0 fd ff ff         	movq	%r11, -592(%rbp)
    3100: 48 89 85 b0 fd ff ff         	movq	%rax, -592(%rbp)
    3107: 48 8b 85 38 fd ff ff         	movq	-712(%rbp), %rax
    310e: 48 c1 e8 20                  	shrq	$32, %rax
    3112: 48 b9 ff ff ff ff 00 00 00 00	movabsq	$4294967295, %rcx       ## imm = 0xFFFFFFFF
    311c: 48 23 8d 30 fd ff ff         	andq	-720(%rbp), %rcx
    3123: 48 01 c8                     	addq	%rcx, %rax
    3126: 48 b9 ff ff ff ff 00 00 00 00	movabsq	$4294967295, %rcx       ## imm = 0xFFFFFFFF
    3130: 48 23 8d 28 fd ff ff         	andq	-728(%rbp), %rcx
    3137: 48 01 c8                     	addq	%rcx, %rax
    313a: 48 b9 00 00 00 00 ff ff ff ff	movabsq	$-4294967296, %rcx      ## imm = 0xFFFFFFFF00000000
    3144: 48 21 c8                     	andq	%rcx, %rax
    3147: 48 c1 e8 20                  	shrq	$32, %rax
    314b: 4c 8b 9d 18 fd ff ff         	movq	-744(%rbp), %r11
    3152: 41 83 e3 00                  	andl	$0, %r11d
    3156: 41 89 c3                     	movl	%eax, %r11d
    3159: 49 f7 d3                     	notq	%r11
    315c: 4c 89 9d 18 fd ff ff         	movq	%r11, -744(%rbp)
    3163: 48 89 85 18 fd ff ff         	movq	%rax, -744(%rbp)
    316a: 48 8b 85 18 fd ff ff         	movq	-744(%rbp), %rax
    3171: 48 03 85 20 fd ff ff         	addq	-736(%rbp), %rax
    3178: 48 b9 00 00 00 00 ff ff ff ff	movabsq	$-4294967296, %rcx      ## imm = 0xFFFFFFFF00000000
    3182: 48 23 8d 30 fd ff ff         	andq	-720(%rbp), %rcx
    3189: 48 c1 e9 20                  	shrq	$32, %rcx
    318d: 48 01 c8                     	addq	%rcx, %rax
    3190: 48 b9 00 00 00 00 ff ff ff ff	movabsq	$-4294967296, %rcx      ## imm = 0xFFFFFFFF00000000
    319a: 48 23 8d 28 fd ff ff         	andq	-728(%rbp), %rcx
    31a1: 48 c1 e9 20                  	shrq	$32, %rcx
    31a5: 48 01 c8                     	addq	%rcx, %rax
    31a8: 4c 8b 9d b8 fd ff ff         	movq	-584(%rbp), %r11
    31af: 41 83 e3 00                  	andl	$0, %r11d
    31b3: 41 89 c3                     	movl	%eax, %r11d
    31b6: 49 f7 d3                     	notq	%r11
    31b9: 4c 89 9d b8 fd ff ff         	movq	%r11, -584(%rbp)
    31c0: 48 89 85 b8 fd ff ff         	movq	%rax, -584(%rbp)
    31c7: 48 8b 45 f8                  	movq	-8(%rbp), %rax
    31cb: 48 c1 e8 3f                  	shrq	$63, %rax
    31cf: 48 8b 4d f0                  	movq	-16(%rbp), %rcx
    31d3: 48 c1 e9 3f                  	shrq	$63, %rcx
    31d7: 48 31 c8                     	xorq	%rcx, %rax
    31da: 44 8a 9d 17 fd ff ff         	movb	-745(%rbp), %r11b
    31e1: 41 82                        	<unknown>
    31e3: e3 f0                        	jrcxz	0x31d5 <_fix_mul+0x14e5>
    31e5: 41 88 c3                     	movb	%al, %r11b
    31e8: 49 f7 d3                     	notq	%r11
    31eb: 44 88 9d 17 fd ff ff         	movb	%r11b, -745(%rbp)
    31f2: 88 85 17 fd ff ff            	movb	%al, -745(%rbp)
    31f8: 48 c7 85 08 fd ff ff 01 00 00 00     	movq	$1, -760(%rbp)
    3203: 80 bd 17 fd ff ff 00         	cmpb	$0, -745(%rbp)
    320a: 0f 95 c0                     	setne	%al
    320d: 34 ff                        	xorb	$-1, %al
    320f: 34 ff                        	xorb	$-1, %al
    3211: 24 01                        	andb	$1, %al
    3213: 0f b6 c0                     	movzbl	%al, %eax
    3216: 48 98                        	cltq
    3218: 48 33 85 08 fd ff ff         	xorq	-760(%rbp), %rax
    321f: 48 2b 85 08 fd ff ff         	subq	-760(%rbp), %rax
    3226: 4c 8b 9d 00 fd ff ff         	movq	-768(%rbp), %r11
    322d: 41 83 e3 00                  	andl	$0, %r11d
    3231: 41 89 c3                     	movl	%eax, %r11d
    3234: 49 f7 d3                     	notq	%r11
    3237: 4c 89 9d 00 fd ff ff         	movq	%r11, -768(%rbp)
    323e: 48 89 85 00 fd ff ff         	movq	%rax, -768(%rbp)
    3245: 48 8b 85 00 fd ff ff         	movq	-768(%rbp), %rax
    324c: 48 8b 8d b0 fd ff ff         	movq	-592(%rbp), %rcx
    3253: 48 83 f1 ff                  	xorq	$-1, %rcx
    3257: 48 83 c1 01                  	addq	$1, %rcx
    325b: 48 21 c8                     	andq	%rcx, %rax
    325e: 48 c7 85 f8 fc ff ff 01 00 00 00     	movq	$1, -776(%rbp)
    3269: 80 bd 17 fd ff ff 00         	cmpb	$0, -745(%rbp)
    3270: 0f 95 c1                     	setne	%cl
    3273: 80 f1 ff                     	xorb	$-1, %cl
    3276: 80 f1 ff                     	xorb	$-1, %cl
    3279: 80 f1 ff                     	xorb	$-1, %cl
    327c: 80 e1 01                     	andb	$1, %cl
    327f: 0f b6 c9                     	movzbl	%cl, %ecx
    3282: 48 63 c9                     	movslq	%ecx, %rcx
    3285: 48 33 8d f8 fc ff ff         	xorq	-776(%rbp), %rcx
    328c: 48 2b 8d f8 fc ff ff         	subq	-776(%rbp), %rcx
    3293: 4c 8b 9d f0 fc ff ff         	movq	-784(%rbp), %r11
    329a: 41 83 e3 00                  	andl	$0, %r11d
    329e: 41 89 cb                     	movl	%ecx, %r11d
    32a1: 49 f7 d3                     	notq	%r11
    32a4: 4c 89 9d f0 fc ff ff         	movq	%r11, -784(%rbp)
    32ab: 48 89 8d f0 fc ff ff         	movq	%rcx, -784(%rbp)
    32b2: 48 8b 8d f0 fc ff ff         	movq	-784(%rbp), %rcx
    32b9: 48 23 8d b0 fd ff ff         	andq	-592(%rbp), %rcx
    32c0: 48 09 c8                     	orq	%rcx, %rax
    32c3: 4c 8b 9d b0 fd ff ff         	movq	-592(%rbp), %r11
    32ca: 41 83 e3 00                  	andl	$0, %r11d
    32ce: 41 89 c3                     	movl	%eax, %r11d
    32d1: 49 f7 d3                     	notq	%r11
    32d4: 4c 89 9d b0 fd ff ff         	movq	%r11, -592(%rbp)
    32db: 48 89 85 b0 fd ff ff         	movq	%rax, -592(%rbp)
    32e2: 48 c7 85 e8 fc ff ff 01 00 00 00     	movq	$1, -792(%rbp)
    32ed: 80 bd 17 fd ff ff 00         	cmpb	$0, -745(%rbp)
    32f4: 0f 95 c0                     	setne	%al
    32f7: 34 ff                        	xorb	$-1, %al
    32f9: 34 ff                        	xorb	$-1, %al
    32fb: 24 01                        	andb	$1, %al
    32fd: 0f b6 c0                     	movzbl	%al, %eax
    3300: 48 98                        	cltq
    3302: 48 33 85 e8 fc ff ff         	xorq	-792(%rbp), %rax
    3309: 48 2b 85 e8 fc ff ff         	subq	-792(%rbp), %rax
    3310: 4c 8b 9d e0 fc ff ff         	movq	-800(%rbp), %r11
    3317: 41 83 e3 00                  	andl	$0, %r11d
    331b: 41 89 c3                     	movl	%eax, %r11d
    331e: 49 f7 d3                     	notq	%r11
    3321: 4c 89 9d e0 fc ff ff         	movq	%r11, -800(%rbp)
    3328: 48 89 85 e0 fc ff ff         	movq	%rax, -800(%rbp)
    332f: 48 8b 85 e0 fc ff ff         	movq	-800(%rbp), %rax
    3336: 48 8b 8d b8 fd ff ff         	movq	-584(%rbp), %rcx
    333d: 48 83 f1 ff                  	xorq	$-1, %rcx
    3341: 48 83 bd b0 fd ff ff 00      	cmpq	$0, -592(%rbp)
    3349: 0f 94 c2                     	sete	%dl
    334c: 80 e2 01                     	andb	$1, %dl
    334f: 0f b6 d2                     	movzbl	%dl, %edx
    3352: 48 63 d2                     	movslq	%edx, %rdx
    3355: 48 01 d1                     	addq	%rdx, %rcx
    3358: 48 21 c8                     	andq	%rcx, %rax
    335b: 48 c7 85 d8 fc ff ff 01 00 00 00     	movq	$1, -808(%rbp)
    3366: 80 bd 17 fd ff ff 00         	cmpb	$0, -745(%rbp)
    336d: 0f 95 c1                     	setne	%cl
    3370: 80 f1 ff                     	xorb	$-1, %cl
    3373: 80 f1 ff                     	xorb	$-1, %cl
    3376: 80 f1 ff                     	xorb	$-1, %cl
    3379: 80 e1 01                     	andb	$1, %cl
    337c: 0f b6 c9                     	movzbl	%cl, %ecx
    337f: 48 63 c9                     	movslq	%ecx, %rcx
    3382: 48 33 8d d8 fc ff ff         	xorq	-808(%rbp), %rcx
    3389: 48 2b 8d d8 fc ff ff         	subq	-808(%rbp), %rcx
    3390: 4c 8b 9d d0 fc ff ff         	movq	-816(%rbp), %r11
    3397: 41 83 e3 00                  	andl	$0, %r11d
    339b: 41 89 cb                     	movl	%ecx, %r11d
    339e: 49 f7 d3                     	notq	%r11
    33a1: 4c 89 9d d0 fc ff ff         	movq	%r11, -816(%rbp)
    33a8: 48 89 8d d0 fc ff ff         	movq	%rcx, -816(%rbp)
    33af: 48 8b 8d d0 fc ff ff         	movq	-816(%rbp), %rcx
    33b6: 48 23 8d b8 fd ff ff         	andq	-584(%rbp), %rcx
    33bd: 48 09 c8                     	orq	%rcx, %rax
    33c0: 4c 8b 9d b8 fd ff ff         	movq	-584(%rbp), %r11
    33c7: 41 83 e3 00                  	andl	$0, %r11d
    33cb: 41 89 c3                     	movl	%eax, %r11d
    33ce: 49 f7 d3                     	notq	%r11
    33d1: 4c 89 9d b8 fd ff ff         	movq	%r11, -584(%rbp)
    33d8: 48 89 85 b8 fd ff ff         	movq	%rax, -584(%rbp)
    33df: c7 85 cc fc ff ff 00 00 00 00	movl	$0, -820(%rbp)
    33e9: 48 8b bd b0 fd ff ff         	movq	-592(%rbp), %rdi
    33f0: be 3f 00 00 00               	movl	$63, %esi
    33f5: e8 00 00 00 00               	callq	0x33fa <_fix_mul+0x170a>
    33fa: 48 89 c1                     	movq	%rax, %rcx
    33fd: 8b 85 88 fb ff ff            	movl	-1144(%rbp), %eax
    3403: 4c 8b 9d c0 fc ff ff         	movq	-832(%rbp), %r11
    340a: 41 83 e3 00                  	andl	$0, %r11d
    340e: 41 89 cb                     	movl	%ecx, %r11d
    3411: 49 f7 d3                     	notq	%r11
    3414: 4c 89 9d c0 fc ff ff         	movq	%r11, -832(%rbp)
    341b: 48 89 8d c0 fc ff ff         	movq	%rcx, -832(%rbp)
    3422: 48 8b 8d c0 fc ff ff         	movq	-832(%rbp), %rcx
    3429: 48 8b 95 b8 fd ff ff         	movq	-584(%rbp), %rdx
    3430: 48 c1 e2 01                  	shlq	$1, %rdx
    3434: 48 01 d1                     	addq	%rdx, %rcx
    3437: 4c 8b 9d b8 fc ff ff         	movq	-840(%rbp), %r11
    343e: 41 83 e3 00                  	andl	$0, %r11d
    3442: 41 89 cb                     	movl	%ecx, %r11d
    3445: 49 f7 d3                     	notq	%r11
    3448: 4c 89 9d b8 fc ff ff         	movq	%r11, -840(%rbp)
    344f: 48 89 8d b8 fc ff ff         	movq	%rcx, -840(%rbp)
    3456: 48 b9 00 00 00 00 00 00 00 c0	movabsq	$-4611686018427387904, %rcx ## imm = 0xC000000000000000
    3460: 48 23 8d b8 fd ff ff         	andq	-584(%rbp), %rcx
    3467: 48 ba 00 00 00 00 00 00 00 c0	movabsq	$-4611686018427387904, %rdx ## imm = 0xC000000000000000
    3471: 48 39 d1                     	cmpq	%rdx, %rcx
    3474: 0f 94 c1                     	sete	%cl
    3477: 80 e1 01                     	andb	$1, %cl
    347a: 0f b6 c9                     	movzbl	%cl, %ecx
    347d: 48 ba 00 00 00 00 00 00 00 c0	movabsq	$-4611686018427387904, %rdx ## imm = 0xC000000000000000
    3487: 48 23 95 b8 fd ff ff         	andq	-584(%rbp), %rdx
    348e: 48 83 fa 00                  	cmpq	$0, %rdx
    3492: 0f 94 c2                     	sete	%dl
    3495: 80 e2 01                     	andb	$1, %dl
    3498: 0f b6 d2                     	movzbl	%dl, %edx
    349b: 09 d1                        	orl	%edx, %ecx
    349d: 83 f9 00                     	cmpl	$0, %ecx
    34a0: 0f 95 c1                     	setne	%cl
    34a3: 80 f1 ff                     	xorb	$-1, %cl
    34a6: 80 e1 01                     	andb	$1, %cl
    34a9: 0f b6 d1                     	movzbl	%cl, %edx
    34ac: 0f b6 4d ea                  	movzbl	-22(%rbp), %ecx
    34b0: 09 d1                        	orl	%edx, %ecx
    34b2: 44 8a 5d ea                  	movb	-22(%rbp), %r11b
    34b6: 41 82                        	<unknown>
    34b8: e3 f0                        	jrcxz	0x34aa <_fix_mul+0x17ba>
    34ba: 41 88 cb                     	movb	%cl, %r11b
    34bd: 49 f7 d3                     	notq	%r11
    34c0: 44 88 5d ea                  	movb	%r11b, -22(%rbp)
    34c4: 88 4d ea                     	movb	%cl, -22(%rbp)
    34c7: 48 8b 8d b8 fc ff ff         	movq	-840(%rbp), %rcx
    34ce: 4c 8b 9d b0 fc ff ff         	movq	-848(%rbp), %r11
    34d5: 41 83 e3 00                  	andl	$0, %r11d
    34d9: 41 89 cb                     	movl	%ecx, %r11d
    34dc: 49 f7 d3                     	notq	%r11
    34df: 4c 89 9d b0 fc ff ff         	movq	%r11, -848(%rbp)
    34e6: 48 89 8d b0 fc ff ff         	movq	%rcx, -848(%rbp)
    34ed: 48 8b 8d b0 fc ff ff         	movq	-848(%rbp), %rcx
    34f4: 48 83 e1 01                  	andq	$1, %rcx
    34f8: 48 83 f9 00                  	cmpq	$0, %rcx
    34fc: 0f 95 c1                     	setne	%cl
    34ff: 80 f1 ff                     	xorb	$-1, %cl
    3502: 80 f1 ff                     	xorb	$-1, %cl
    3505: 80 e1 01                     	andb	$1, %cl
    3508: 0f b6 c9                     	movzbl	%cl, %ecx
    350b: 21 c8                        	andl	%ecx, %eax
    350d: 89 85 8c fb ff ff            	movl	%eax, -1140(%rbp)
    3513: 48 c7 85 90 fc ff ff 01 00 00 00     	movq	$1, -880(%rbp)
    351e: 48 8b 45 f8                  	movq	-8(%rbp), %rax
    3522: 48 c1 e8 3f                  	shrq	$63, %rax
    3526: 48 83 f8 00                  	cmpq	$0, %rax
    352a: 0f 95 c0                     	setne	%al
    352d: 34 ff                        	xorb	$-1, %al
    352f: 34 ff                        	xorb	$-1, %al
    3531: 24 01                        	andb	$1, %al
    3533: 0f b6 c0                     	movzbl	%al, %eax
    3536: 48 98                        	cltq
    3538: 48 33 85 90 fc ff ff         	xorq	-880(%rbp), %rax
    353f: 48 2b 85 90 fc ff ff         	subq	-880(%rbp), %rax
    3546: 4c 8b 9d 88 fc ff ff         	movq	-888(%rbp), %r11
    354d: 41 83 e3 00                  	andl	$0, %r11d
    3551: 41 89 c3                     	movl	%eax, %r11d
    3554: 49 f7 d3                     	notq	%r11
    3557: 4c 89 9d 88 fc ff ff         	movq	%r11, -888(%rbp)
    355e: 48 89 85 88 fc ff ff         	movq	%rax, -888(%rbp)
    3565: 48 8b 85 88 fc ff ff         	movq	-888(%rbp), %rax
    356c: 48 8b 4d f8                  	movq	-8(%rbp), %rcx
    3570: 48 83 f1 ff                  	xorq	$-1, %rcx
    3574: 48 83 c1 01                  	addq	$1, %rcx
    3578: 48 21 c8                     	andq	%rcx, %rax
    357b: 48 c7 85 80 fc ff ff 01 00 00 00     	movq	$1, -896(%rbp)
    3586: 48 8b 4d f8                  	movq	-8(%rbp), %rcx
    358a: 48 c1 e9 3f                  	shrq	$63, %rcx
    358e: 48 83 f9 00                  	cmpq	$0, %rcx
    3592: 0f 95 c1                     	setne	%cl
    3595: 80 f1 ff                     	xorb	$-1, %cl
    3598: 80 f1 ff                     	xorb	$-1, %cl
    359b: 80 f1 ff                     	xorb	$-1, %cl
    359e: 80 e1 01                     	andb	$1, %cl
    35a1: 0f b6 c9                     	movzbl	%cl, %ecx
    35a4: 48 63 c9                     	movslq	%ecx, %rcx
    35a7: 48 33 8d 80 fc ff ff         	xorq	-896(%rbp), %rcx
    35ae: 48 2b 8d 80 fc ff ff         	subq	-896(%rbp), %rcx
    35b5: 4c 8b 9d 78 fc ff ff         	movq	-904(%rbp), %r11
    35bc: 41 83 e3 00                  	andl	$0, %r11d
    35c0: 41 89 cb                     	movl	%ecx, %r11d
    35c3: 49 f7 d3                     	notq	%r11
    35c6: 4c 89 9d 78 fc ff ff         	movq	%r11, -904(%rbp)
    35cd: 48 89 8d 78 fc ff ff         	movq	%rcx, -904(%rbp)
    35d4: 48 8b 8d 78 fc ff ff         	movq	-904(%rbp), %rcx
    35db: 48 23 4d f8                  	andq	-8(%rbp), %rcx
    35df: 48 09 c8                     	orq	%rcx, %rax
    35e2: 4c 8b 9d 98 fc ff ff         	movq	-872(%rbp), %r11
    35e9: 41 83 e3 00                  	andl	$0, %r11d
    35ed: 41 89 c3                     	movl	%eax, %r11d
    35f0: 49 f7 d3                     	notq	%r11
    35f3: 4c 89 9d 98 fc ff ff         	movq	%r11, -872(%rbp)
    35fa: 48 89 85 98 fc ff ff         	movq	%rax, -872(%rbp)
    3601: 48 c7 85 68 fc ff ff 01 00 00 00     	movq	$1, -920(%rbp)
    360c: 48 8b 45 f0                  	movq	-16(%rbp), %rax
    3610: 48 c1 e8 3f                  	shrq	$63, %rax
    3614: 48 83 f8 00                  	cmpq	$0, %rax
    3618: 0f 95 c0                     	setne	%al
    361b: 34 ff                        	xorb	$-1, %al
    361d: 34 ff                        	xorb	$-1, %al
    361f: 24 01                        	andb	$1, %al
    3621: 0f b6 c0                     	movzbl	%al, %eax
    3624: 48 98                        	cltq
    3626: 48 33 85 68 fc ff ff         	xorq	-920(%rbp), %rax
    362d: 48 2b 85 68 fc ff ff         	subq	-920(%rbp), %rax
    3634: 4c 8b 9d 60 fc ff ff         	movq	-928(%rbp), %r11
    363b: 41 83 e3 00                  	andl	$0, %r11d
    363f: 41 89 c3                     	movl	%eax, %r11d
    3642: 49 f7 d3                     	notq	%r11
    3645: 4c 89 9d 60 fc ff ff         	movq	%r11, -928(%rbp)
    364c: 48 89 85 60 fc ff ff         	movq	%rax, -928(%rbp)
    3653: 48 8b 85 60 fc ff ff         	movq	-928(%rbp), %rax
    365a: 48 8b 4d f0                  	movq	-16(%rbp), %rcx
    365e: 48 83 f1 ff                  	xorq	$-1, %rcx
    3662: 48 83 c1 01                  	addq	$1, %rcx
    3666: 48 21 c8                     	andq	%rcx, %rax
    3669: 48 c7 85 58 fc ff ff 01 00 00 00     	movq	$1, -936(%rbp)
    3674: 48 8b 4d f0                  	movq	-16(%rbp), %rcx
    3678: 48 c1 e9 3f                  	shrq	$63, %rcx
    367c: 48 83 f9 00                  	cmpq	$0, %rcx
    3680: 0f 95 c1                     	setne	%cl
    3683: 80 f1 ff                     	xorb	$-1, %cl
    3686: 80 f1 ff                     	xorb	$-1, %cl
    3689: 80 f1 ff                     	xorb	$-1, %cl
    368c: 80 e1 01                     	andb	$1, %cl
    368f: 0f b6 c9                     	movzbl	%cl, %ecx
    3692: 48 63 c9                     	movslq	%ecx, %rcx
    3695: 48 33 8d 58 fc ff ff         	xorq	-936(%rbp), %rcx
    369c: 48 2b 8d 58 fc ff ff         	subq	-936(%rbp), %rcx
    36a3: 4c 8b 9d 50 fc ff ff         	movq	-944(%rbp), %r11
    36aa: 41 83 e3 00                  	andl	$0, %r11d
    36ae: 41 89 cb                     	movl	%ecx, %r11d
    36b1: 49 f7 d3                     	notq	%r11
    36b4: 4c 89 9d 50 fc ff ff         	movq	%r11, -944(%rbp)
    36bb: 48 89 8d 50 fc ff ff         	movq	%rcx, -944(%rbp)
    36c2: 48 8b 8d 50 fc ff ff         	movq	-944(%rbp), %rcx
    36c9: 48 23 4d f0                  	andq	-16(%rbp), %rcx
    36cd: 48 09 c8                     	orq	%rcx, %rax
    36d0: 4c 8b 9d 70 fc ff ff         	movq	-912(%rbp), %r11
    36d7: 41 83 e3 00                  	andl	$0, %r11d
    36db: 41 89 c3                     	movl	%eax, %r11d
    36de: 49 f7 d3                     	notq	%r11
    36e1: 4c 89 9d 70 fc ff ff         	movq	%r11, -912(%rbp)
    36e8: 48 89 85 70 fc ff ff         	movq	%rax, -912(%rbp)
    36ef: 48 8b 85 98 fc ff ff         	movq	-872(%rbp), %rax
    36f6: 48 c1 e8 20                  	shrq	$32, %rax
    36fa: 4c 8b 9d 48 fc ff ff         	movq	-952(%rbp), %r11
    3701: 41 83 e3 00                  	andl	$0, %r11d
    3705: 41 89 c3                     	movl	%eax, %r11d
    3708: 49 f7 d3                     	notq	%r11
    370b: 4c 89 9d 48 fc ff ff         	movq	%r11, -952(%rbp)
    3712: 48 89 85 48 fc ff ff         	movq	%rax, -952(%rbp)
    3719: 48 b8 ff ff ff ff 00 00 00 00	movabsq	$4294967295, %rax       ## imm = 0xFFFFFFFF
    3723: 48 23 85 98 fc ff ff         	andq	-872(%rbp), %rax
    372a: 4c 8b 9d 40 fc ff ff         	movq	-960(%rbp), %r11
    3731: 41 83 e3 00                  	andl	$0, %r11d
    3735: 41 89 c3                     	movl	%eax, %r11d
    3738: 49 f7 d3                     	notq	%r11
    373b: 4c 89 9d 40 fc ff ff         	movq	%r11, -960(%rbp)
    3742: 48 89 85 40 fc ff ff         	movq	%rax, -960(%rbp)
    3749: 48 8b 85 70 fc ff ff         	movq	-912(%rbp), %rax
    3750: 48 c1 e8 20                  	shrq	$32, %rax
    3754: 4c 8b 9d 38 fc ff ff         	movq	-968(%rbp), %r11
    375b: 41 83 e3 00                  	andl	$0, %r11d
    375f: 41 89 c3                     	movl	%eax, %r11d
    3762: 49 f7 d3                     	notq	%r11
    3765: 4c 89 9d 38 fc ff ff         	movq	%r11, -968(%rbp)
    376c: 48 89 85 38 fc ff ff         	movq	%rax, -968(%rbp)
    3773: 48 b8 ff ff ff ff 00 00 00 00	movabsq	$4294967295, %rax       ## imm = 0xFFFFFFFF
    377d: 48 23 85 70 fc ff ff         	andq	-912(%rbp), %rax
    3784: 4c 8b 9d 30 fc ff ff         	movq	-976(%rbp), %r11
    378b: 41 83 e3 00                  	andl	$0, %r11d
    378f: 41 89 c3                     	movl	%eax, %r11d
    3792: 49 f7 d3                     	notq	%r11
    3795: 4c 89 9d 30 fc ff ff         	movq	%r11, -976(%rbp)
    379c: 48 89 85 30 fc ff ff         	movq	%rax, -976(%rbp)
    37a3: 48 8b 85 40 fc ff ff         	movq	-960(%rbp), %rax
    37aa: 48 0f af 85 30 fc ff ff      	imulq	-976(%rbp), %rax
    37b2: 4c 8b 9d 28 fc ff ff         	movq	-984(%rbp), %r11
    37b9: 41 83 e3 00                  	andl	$0, %r11d
    37bd: 41 89 c3                     	movl	%eax, %r11d
    37c0: 49 f7 d3                     	notq	%r11
    37c3: 4c 89 9d 28 fc ff ff         	movq	%r11, -984(%rbp)
    37ca: 48 89 85 28 fc ff ff         	movq	%rax, -984(%rbp)
    37d1: 48 8b 85 40 fc ff ff         	movq	-960(%rbp), %rax
    37d8: 48 0f af 85 38 fc ff ff      	imulq	-968(%rbp), %rax
    37e0: 4c 8b 9d 20 fc ff ff         	movq	-992(%rbp), %r11
    37e7: 41 83 e3 00                  	andl	$0, %r11d
    37eb: 41 89 c3                     	movl	%eax, %r11d
    37ee: 49 f7 d3                     	notq	%r11
    37f1: 4c 89 9d 20 fc ff ff         	movq	%r11, -992(%rbp)
    37f8: 48 89 85 20 fc ff ff         	movq	%rax, -992(%rbp)
    37ff: 48 8b 85 48 fc ff ff         	movq	-952(%rbp), %rax
    3806: 48 0f af 85 30 fc ff ff      	imulq	-976(%rbp), %rax
    380e: 4c 8b 9d 18 fc ff ff         	movq	-1000(%rbp), %r11
    3815: 41 83 e3 00                  	andl	$0, %r11d
    3819: 41 89 c3                     	movl	%eax, %r11d
    381c: 49 f7 d3                     	notq	%r11
    381f: 4c 89 9d 18 fc ff ff         	movq	%r11, -1000(%rbp)
    3826: 48 89 85 18 fc ff ff         	movq	%rax, -1000(%rbp)
    382d: 48 8b 85 48 fc ff ff         	movq	-952(%rbp), %rax
    3834: 48 0f af 85 38 fc ff ff      	imulq	-968(%rbp), %rax
    383c: 4c 8b 9d 10 fc ff ff         	movq	-1008(%rbp), %r11
    3843: 41 83 e3 00                  	andl	$0, %r11d
    3847: 41 89 c3                     	movl	%eax, %r11d
    384a: 49 f7 d3                     	notq	%r11
    384d: 4c 89 9d 10 fc ff ff         	movq	%r11, -1008(%rbp)
    3854: 48 89 85 10 fc ff ff         	movq	%rax, -1008(%rbp)
    385b: 48 8b 85 28 fc ff ff         	movq	-984(%rbp), %rax
    3862: 48 b9 ff ff ff ff 00 00 00 00	movabsq	$4294967295, %rcx       ## imm = 0xFFFFFFFF
    386c: 48 23 8d 20 fc ff ff         	andq	-992(%rbp), %rcx
    3873: 48 c1 e1 20                  	shlq	$32, %rcx
    3877: 48 01 c8                     	addq	%rcx, %rax
    387a: 48 b9 ff ff ff ff 00 00 00 00	movabsq	$4294967295, %rcx       ## imm = 0xFFFFFFFF
    3884: 48 23 8d 18 fc ff ff         	andq	-1000(%rbp), %rcx
    388b: 48 c1 e1 20                  	shlq	$32, %rcx
    388f: 48 01 c8                     	addq	%rcx, %rax
    3892: 4c 8b 9d a0 fc ff ff         	movq	-864(%rbp), %r11
    3899: 41 83 e3 00                  	andl	$0, %r11d
    389d: 41 89 c3                     	movl	%eax, %r11d
    38a0: 49 f7 d3                     	notq	%r11
    38a3: 4c 89 9d a0 fc ff ff         	movq	%r11, -864(%rbp)
    38aa: 48 89 85 a0 fc ff ff         	movq	%rax, -864(%rbp)
    38b1: 48 8b 85 28 fc ff ff         	movq	-984(%rbp), %rax
    38b8: 48 c1 e8 20                  	shrq	$32, %rax
    38bc: 48 b9 ff ff ff ff 00 00 00 00	movabsq	$4294967295, %rcx       ## imm = 0xFFFFFFFF
    38c6: 48 23 8d 20 fc ff ff         	andq	-992(%rbp), %rcx
    38cd: 48 01 c8                     	addq	%rcx, %rax
    38d0: 48 b9 ff ff ff ff 00 00 00 00	movabsq	$4294967295, %rcx       ## imm = 0xFFFFFFFF
    38da: 48 23 8d 18 fc ff ff         	andq	-1000(%rbp), %rcx
    38e1: 48 01 c8                     	addq	%rcx, %rax
    38e4: 48 b9 00 00 00 00 ff ff ff ff	movabsq	$-4294967296, %rcx      ## imm = 0xFFFFFFFF00000000
    38ee: 48 21 c8                     	andq	%rcx, %rax
    38f1: 48 c1 e8 20                  	shrq	$32, %rax
    38f5: 4c 8b 9d 08 fc ff ff         	movq	-1016(%rbp), %r11
    38fc: 41 83 e3 00                  	andl	$0, %r11d
    3900: 41 89 c3                     	movl	%eax, %r11d
    3903: 49 f7 d3                     	notq	%r11
    3906: 4c 89 9d 08 fc ff ff         	movq	%r11, -1016(%rbp)
    390d: 48 89 85 08 fc ff ff         	movq	%rax, -1016(%rbp)
    3914: 48 8b 85 08 fc ff ff         	movq	-1016(%rbp), %rax
    391b: 48 03 85 10 fc ff ff         	addq	-1008(%rbp), %rax
    3922: 48 b9 00 00 00 00 ff ff ff ff	movabsq	$-4294967296, %rcx      ## imm = 0xFFFFFFFF00000000
    392c: 48 23 8d 20 fc ff ff         	andq	-992(%rbp), %rcx
    3933: 48 c1 e9 20                  	shrq	$32, %rcx
    3937: 48 01 c8                     	addq	%rcx, %rax
    393a: 48 b9 00 00 00 00 ff ff ff ff	movabsq	$-4294967296, %rcx      ## imm = 0xFFFFFFFF00000000
    3944: 48 23 8d 18 fc ff ff         	andq	-1000(%rbp), %rcx
    394b: 48 c1 e9 20                  	shrq	$32, %rcx
    394f: 48 01 c8                     	addq	%rcx, %rax
    3952: 4c 8b 9d a8 fc ff ff         	movq	-856(%rbp), %r11
    3959: 41 83 e3 00                  	andl	$0, %r11d
    395d: 41 89 c3                     	movl	%eax, %r11d
    3960: 49 f7 d3                     	notq	%r11
    3963: 4c 89 9d a8 fc ff ff         	movq	%r11, -856(%rbp)
    396a: 48 89 85 a8 fc ff ff         	movq	%rax, -856(%rbp)
    3971: 48 8b 45 f8                  	movq	-8(%rbp), %rax
    3975: 48 c1 e8 3f                  	shrq	$63, %rax
    3979: 48 8b 4d f0                  	movq	-16(%rbp), %rcx
    397d: 48 c1 e9 3f                  	shrq	$63, %rcx
    3981: 48 31 c8                     	xorq	%rcx, %rax
    3984: 44 8a 9d 07 fc ff ff         	movb	-1017(%rbp), %r11b
    398b: 41 82                        	<unknown>
    398d: e3 f0                        	jrcxz	0x397f <_fix_mul+0x1c8f>
    398f: 41 88 c3                     	movb	%al, %r11b
    3992: 49 f7 d3                     	notq	%r11
    3995: 44 88 9d 07 fc ff ff         	movb	%r11b, -1017(%rbp)
    399c: 88 85 07 fc ff ff            	movb	%al, -1017(%rbp)
    39a2: 48 c7 85 f8 fb ff ff 01 00 00 00     	movq	$1, -1032(%rbp)
    39ad: 80 bd 07 fc ff ff 00         	cmpb	$0, -1017(%rbp)
    39b4: 0f 95 c0                     	setne	%al
    39b7: 34 ff                        	xorb	$-1, %al
    39b9: 34 ff                        	xorb	$-1, %al
    39bb: 24 01                        	andb	$1, %al
    39bd: 0f b6 c0                     	movzbl	%al, %eax
    39c0: 48 98                        	cltq
    39c2: 48 33 85 f8 fb ff ff         	xorq	-1032(%rbp), %rax
    39c9: 48 2b 85 f8 fb ff ff         	subq	-1032(%rbp), %rax
    39d0: 4c 8b 9d f0 fb ff ff         	movq	-1040(%rbp), %r11
    39d7: 41 83 e3 00                  	andl	$0, %r11d
    39db: 41 89 c3                     	movl	%eax, %r11d
    39de: 49 f7 d3                     	notq	%r11
    39e1: 4c 89 9d f0 fb ff ff         	movq	%r11, -1040(%rbp)
    39e8: 48 89 85 f0 fb ff ff         	movq	%rax, -1040(%rbp)
    39ef: 48 8b 85 f0 fb ff ff         	movq	-1040(%rbp), %rax
    39f6: 48 8b 8d a0 fc ff ff         	movq	-864(%rbp), %rcx
    39fd: 48 83 f1 ff                  	xorq	$-1, %rcx
    3a01: 48 83 c1 01                  	addq	$1, %rcx
    3a05: 48 21 c8                     	andq	%rcx, %rax
    3a08: 48 c7 85 e8 fb ff ff 01 00 00 00     	movq	$1, -1048(%rbp)
    3a13: 80 bd 07 fc ff ff 00         	cmpb	$0, -1017(%rbp)
    3a1a: 0f 95 c1                     	setne	%cl
    3a1d: 80 f1 ff                     	xorb	$-1, %cl
    3a20: 80 f1 ff                     	xorb	$-1, %cl
    3a23: 80 f1 ff                     	xorb	$-1, %cl
    3a26: 80 e1 01                     	andb	$1, %cl
    3a29: 0f b6 c9                     	movzbl	%cl, %ecx
    3a2c: 48 63 c9                     	movslq	%ecx, %rcx
    3a2f: 48 33 8d e8 fb ff ff         	xorq	-1048(%rbp), %rcx
    3a36: 48 2b 8d e8 fb ff ff         	subq	-1048(%rbp), %rcx
    3a3d: 4c 8b 9d e0 fb ff ff         	movq	-1056(%rbp), %r11
    3a44: 41 83 e3 00                  	andl	$0, %r11d
    3a48: 41 89 cb                     	movl	%ecx, %r11d
    3a4b: 49 f7 d3                     	notq	%r11
    3a4e: 4c 89 9d e0 fb ff ff         	movq	%r11, -1056(%rbp)
    3a55: 48 89 8d e0 fb ff ff         	movq	%rcx, -1056(%rbp)
    3a5c: 48 8b 8d e0 fb ff ff         	movq	-1056(%rbp), %rcx
    3a63: 48 23 8d a0 fc ff ff         	andq	-864(%rbp), %rcx
    3a6a: 48 09 c8                     	orq	%rcx, %rax
    3a6d: 4c 8b 9d a0 fc ff ff         	movq	-864(%rbp), %r11
    3a74: 41 83 e3 00                  	andl	$0, %r11d
    3a78: 41 89 c3                     	movl	%eax, %r11d
    3a7b: 49 f7 d3                     	notq	%r11
    3a7e: 4c 89 9d a0 fc ff ff         	movq	%r11, -864(%rbp)
    3a85: 48 89 85 a0 fc ff ff         	movq	%rax, -864(%rbp)
    3a8c: 48 c7 85 d8 fb ff ff 01 00 00 00     	movq	$1, -1064(%rbp)
    3a97: 80 bd 07 fc ff ff 00         	cmpb	$0, -1017(%rbp)
    3a9e: 0f 95 c0                     	setne	%al
    3aa1: 34 ff                        	xorb	$-1, %al
    3aa3: 34 ff                        	xorb	$-1, %al
    3aa5: 24 01                        	andb	$1, %al
    3aa7: 0f b6 c0                     	movzbl	%al, %eax
    3aaa: 48 98                        	cltq
    3aac: 48 33 85 d8 fb ff ff         	xorq	-1064(%rbp), %rax
    3ab3: 48 2b 85 d8 fb ff ff         	subq	-1064(%rbp), %rax
    3aba: 4c 8b 9d d0 fb ff ff         	movq	-1072(%rbp), %r11
    3ac1: 41 83 e3 00                  	andl	$0, %r11d
    3ac5: 41 89 c3                     	movl	%eax, %r11d
    3ac8: 49 f7 d3                     	notq	%r11
    3acb: 4c 89 9d d0 fb ff ff         	movq	%r11, -1072(%rbp)
    3ad2: 48 89 85 d0 fb ff ff         	movq	%rax, -1072(%rbp)
    3ad9: 48 8b 85 d0 fb ff ff         	movq	-1072(%rbp), %rax
    3ae0: 48 8b 8d a8 fc ff ff         	movq	-856(%rbp), %rcx
    3ae7: 48 83 f1 ff                  	xorq	$-1, %rcx
    3aeb: 48 83 bd a0 fc ff ff 00      	cmpq	$0, -864(%rbp)
    3af3: 0f 94 c2                     	sete	%dl
    3af6: 80 e2 01                     	andb	$1, %dl
    3af9: 0f b6 d2                     	movzbl	%dl, %edx
    3afc: 48 63 d2                     	movslq	%edx, %rdx
    3aff: 48 01 d1                     	addq	%rdx, %rcx
    3b02: 48 21 c8                     	andq	%rcx, %rax
    3b05: 48 c7 85 c8 fb ff ff 01 00 00 00     	movq	$1, -1080(%rbp)
    3b10: 80 bd 07 fc ff ff 00         	cmpb	$0, -1017(%rbp)
    3b17: 0f 95 c1                     	setne	%cl
    3b1a: 80 f1 ff                     	xorb	$-1, %cl
    3b1d: 80 f1 ff                     	xorb	$-1, %cl
    3b20: 80 f1 ff                     	xorb	$-1, %cl
    3b23: 80 e1 01                     	andb	$1, %cl
    3b26: 0f b6 c9                     	movzbl	%cl, %ecx
    3b29: 48 63 c9                     	movslq	%ecx, %rcx
    3b2c: 48 33 8d c8 fb ff ff         	xorq	-1080(%rbp), %rcx
    3b33: 48 2b 8d c8 fb ff ff         	subq	-1080(%rbp), %rcx
    3b3a: 4c 8b 9d c0 fb ff ff         	movq	-1088(%rbp), %r11
    3b41: 41 83 e3 00                  	andl	$0, %r11d
    3b45: 41 89 cb                     	movl	%ecx, %r11d
    3b48: 49 f7 d3                     	notq	%r11
    3b4b: 4c 89 9d c0 fb ff ff         	movq	%r11, -1088(%rbp)
    3b52: 48 89 8d c0 fb ff ff         	movq	%rcx, -1088(%rbp)
    3b59: 48 8b 8d c0 fb ff ff         	movq	-1088(%rbp), %rcx
    3b60: 48 23 8d a8 fc ff ff         	andq	-856(%rbp), %rcx
    3b67: 48 09 c8                     	orq	%rcx, %rax
    3b6a: 4c 8b 9d a8 fc ff ff         	movq	-856(%rbp), %r11
    3b71: 41 83 e3 00                  	andl	$0, %r11d
    3b75: 41 89 c3                     	movl	%eax, %r11d
    3b78: 49 f7 d3                     	notq	%r11
    3b7b: 4c 89 9d a8 fc ff ff         	movq	%r11, -856(%rbp)
    3b82: 48 89 85 a8 fc ff ff         	movq	%rax, -856(%rbp)
    3b89: c7 85 bc fb ff ff 00 00 00 00	movl	$0, -1092(%rbp)
    3b93: 48 8b bd a0 fc ff ff         	movq	-864(%rbp), %rdi
    3b9a: be 3f 00 00 00               	movl	$63, %esi
    3b9f: e8 00 00 00 00               	callq	0x3ba4 <_fix_mul+0x1eb4>
    3ba4: 8b 8d 8c fb ff ff            	movl	-1140(%rbp), %ecx
    3baa: 48 89 c2                     	movq	%rax, %rdx
    3bad: 48 8b 85 90 fb ff ff         	movq	-1136(%rbp), %rax
    3bb4: 4c 8b 9d b0 fb ff ff         	movq	-1104(%rbp), %r11
    3bbb: 41 83 e3 00                  	andl	$0, %r11d
    3bbf: 41 89 d3                     	movl	%edx, %r11d
    3bc2: 49 f7 d3                     	notq	%r11
    3bc5: 4c 89 9d b0 fb ff ff         	movq	%r11, -1104(%rbp)
    3bcc: 48 89 95 b0 fb ff ff         	movq	%rdx, -1104(%rbp)
    3bd3: 48 8b 95 b0 fb ff ff         	movq	-1104(%rbp), %rdx
    3bda: 48 8b b5 a8 fc ff ff         	movq	-856(%rbp), %rsi
    3be1: 48 c1 e6 01                  	shlq	$1, %rsi
    3be5: 48 01 f2                     	addq	%rsi, %rdx
    3be8: 4c 8b 9d a8 fb ff ff         	movq	-1112(%rbp), %r11
    3bef: 41 83 e3 00                  	andl	$0, %r11d
    3bf3: 41 89 d3                     	movl	%edx, %r11d
    3bf6: 49 f7 d3                     	notq	%r11
    3bf9: 4c 89 9d a8 fb ff ff         	movq	%r11, -1112(%rbp)
    3c00: 48 89 95 a8 fb ff ff         	movq	%rdx, -1112(%rbp)
    3c07: 48 ba 00 00 00 00 00 00 00 c0	movabsq	$-4611686018427387904, %rdx ## imm = 0xC000000000000000
    3c11: 48 23 95 a8 fc ff ff         	andq	-856(%rbp), %rdx
    3c18: 48 be 00 00 00 00 00 00 00 c0	movabsq	$-4611686018427387904, %rsi ## imm = 0xC000000000000000
    3c22: 48 39 f2                     	cmpq	%rsi, %rdx
    3c25: 0f 94 c2                     	sete	%dl
    3c28: 80 e2 01                     	andb	$1, %dl
    3c2b: 0f b6 d2                     	movzbl	%dl, %edx
    3c2e: 48 be 00 00 00 00 00 00 00 c0	movabsq	$-4611686018427387904, %rsi ## imm = 0xC000000000000000
    3c38: 48 23 b5 a8 fc ff ff         	andq	-856(%rbp), %rsi
    3c3f: 48 83 fe 00                  	cmpq	$0, %rsi
    3c43: 40 0f 94 c6                  	sete	%sil
    3c47: 40 80 e6 01                  	andb	$1, %sil
    3c4b: 40 0f b6 f6                  	movzbl	%sil, %esi
    3c4f: 09 f2                        	orl	%esi, %edx
    3c51: 83 fa 00                     	cmpl	$0, %edx
    3c54: 0f 95 c2                     	setne	%dl
    3c57: 80 f2 ff                     	xorb	$-1, %dl
    3c5a: 80 e2 01                     	andb	$1, %dl
    3c5d: 0f b6 f2                     	movzbl	%dl, %esi
    3c60: 0f b6 55 ea                  	movzbl	-22(%rbp), %edx
    3c64: 09 f2                        	orl	%esi, %edx
    3c66: 44 8a 5d ea                  	movb	-22(%rbp), %r11b
    3c6a: 41 82                        	<unknown>
    3c6c: e3 f0                        	jrcxz	0x3c5e <_fix_mul+0x1f6e>
    3c6e: 41 88 d3                     	movb	%dl, %r11b
    3c71: 49 f7 d3                     	notq	%r11
    3c74: 44 88 5d ea                  	movb	%r11b, -22(%rbp)
    3c78: 88 55 ea                     	movb	%dl, -22(%rbp)
    3c7b: 48 8b 95 a8 fb ff ff         	movq	-1112(%rbp), %rdx
    3c82: 4c 8b 9d a0 fb ff ff         	movq	-1120(%rbp), %r11
    3c89: 41 83 e3 00                  	andl	$0, %r11d
    3c8d: 41 89 d3                     	movl	%edx, %r11d
    3c90: 49 f7 d3                     	notq	%r11
    3c93: 4c 89 9d a0 fb ff ff         	movq	%r11, -1120(%rbp)
    3c9a: 48 89 95 a0 fb ff ff         	movq	%rdx, -1120(%rbp)
    3ca1: 48 8b 95 a0 fb ff ff         	movq	-1120(%rbp), %rdx
    3ca8: 48 c1 ea 00                  	shrq	$0, %rdx
    3cac: 48 83 e2 06                  	andq	$6, %rdx
    3cb0: 48 83 fa 06                  	cmpq	$6, %rdx
    3cb4: 0f 94 c2                     	sete	%dl
    3cb7: 80 e2 01                     	andb	$1, %dl
    3cba: 0f b6 d2                     	movzbl	%dl, %edx
    3cbd: 09 d1                        	orl	%edx, %ecx
    3cbf: 83 f9 00                     	cmpl	$0, %ecx
    3cc2: 0f 95 c1                     	setne	%cl
    3cc5: 80 f1 ff                     	xorb	$-1, %cl
    3cc8: 80 f1 ff                     	xorb	$-1, %cl
    3ccb: 80 e1 01                     	andb	$1, %cl
    3cce: 0f b6 c9                     	movzbl	%cl, %ecx
    3cd1: 48 63 c9                     	movslq	%ecx, %rcx
    3cd4: 48 01 c8                     	addq	%rcx, %rax
    3cd7: 48 c1 e0 02                  	shlq	$2, %rax
    3cdb: 4c 8b 5d e0                  	movq	-32(%rbp), %r11
    3cdf: 41 83 e3 00                  	andl	$0, %r11d
    3ce3: 41 89 c3                     	movl	%eax, %r11d
    3ce6: 49 f7 d3                     	notq	%r11
    3ce9: 4c 89 5d e0                  	movq	%r11, -32(%rbp)
    3ced: 48 89 45 e0                  	movq	%rax, -32(%rbp)
    3cf1: 80 7d e9 00                  	cmpb	$0, -23(%rbp)
    3cf5: 0f 95 c0                     	setne	%al
    3cf8: 34 ff                        	xorb	$-1, %al
    3cfa: 24 01                        	andb	$1, %al
    3cfc: 0f b6 c0                     	movzbl	%al, %eax
    3cff: 0f b6 4d ef                  	movzbl	-17(%rbp), %ecx
    3d03: 0f b6 55 ee                  	movzbl	-18(%rbp), %edx
    3d07: 09 d1                        	orl	%edx, %ecx
    3d09: 0f b6 55 ea                  	movzbl	-22(%rbp), %edx
    3d0d: 09 d1                        	orl	%edx, %ecx
    3d0f: 21 c8                        	andl	%ecx, %eax
    3d11: 80 7d eb 00                  	cmpb	$0, -21(%rbp)
    3d15: 0f 95 c1                     	setne	%cl
    3d18: 80 f1 ff                     	xorb	$-1, %cl
    3d1b: 80 e1 01                     	andb	$1, %cl
    3d1e: 0f b6 c9                     	movzbl	%cl, %ecx
    3d21: 21 c8                        	andl	%ecx, %eax
    3d23: 44 8a 5d ea                  	movb	-22(%rbp), %r11b
    3d27: 41 82                        	<unknown>
    3d29: e3 f0                        	jrcxz	0x3d1b <_fix_mul+0x202b>
    3d2b: 41 88 c3                     	movb	%al, %r11b
    3d2e: 49 f7 d3                     	notq	%r11
    3d31: 44 88 5d ea                  	movb	%r11b, -22(%rbp)
    3d35: 88 45 ea                     	movb	%al, -22(%rbp)
    3d38: 0f b6 45 ea                  	movzbl	-22(%rbp), %eax
    3d3c: 0f b6 4d ed                  	movzbl	-19(%rbp), %ecx
    3d40: 0f b6 55 ec                  	movzbl	-20(%rbp), %edx
    3d44: 31 d1                        	xorl	%edx, %ecx
    3d46: 83 f9 00                     	cmpl	$0, %ecx
    3d49: 0f 95 c1                     	setne	%cl
    3d4c: 80 f1 ff                     	xorb	$-1, %cl
    3d4f: 80 e1 01                     	andb	$1, %cl
    3d52: 0f b6 c9                     	movzbl	%cl, %ecx
    3d55: 21 c8                        	andl	%ecx, %eax
    3d57: 44 8a 9d 9f fb ff ff         	movb	-1121(%rbp), %r11b
    3d5e: 41 82                        	<unknown>
    3d60: e3 f0                        	jrcxz	0x3d52 <_fix_mul+0x2062>
    3d62: 41 88 c3                     	movb	%al, %r11b
    3d65: 49 f7 d3                     	notq	%r11
    3d68: 44 88 9d 9f fb ff ff         	movb	%r11b, -1121(%rbp)
    3d6f: 88 85 9f fb ff ff            	movb	%al, -1121(%rbp)
    3d75: 0f b6 45 ea                  	movzbl	-22(%rbp), %eax
    3d79: 0f b6 4d ed                  	movzbl	-19(%rbp), %ecx
    3d7d: 0f b6 55 ec                  	movzbl	-20(%rbp), %edx
    3d81: 31 d1                        	xorl	%edx, %ecx
    3d83: 21 c8                        	andl	%ecx, %eax
    3d85: 44 8a 9d 9e fb ff ff         	movb	-1122(%rbp), %r11b
    3d8c: 41 82                        	<unknown>
    3d8e: e3 f0                        	jrcxz	0x3d80 <_fix_mul+0x2090>
    3d90: 41 88 c3                     	movb	%al, %r11b
    3d93: 49 f7 d3                     	notq	%r11
    3d96: 44 88 9d 9e fb ff ff         	movb	%r11b, -1122(%rbp)
    3d9d: 88 85 9e fb ff ff            	movb	%al, -1122(%rbp)
    3da3: 0f b6 45 eb                  	movzbl	-21(%rbp), %eax
    3da7: 0f b6 4d eb                  	movzbl	-21(%rbp), %ecx
    3dab: c1 e1 01                     	shll	$1, %ecx
    3dae: 09 c8                        	orl	%ecx, %eax
    3db0: 48 98                        	cltq
    3db2: 48 83 e0 01                  	andq	$1, %rax
    3db6: 0f b6 8d 9f fb ff ff         	movzbl	-1121(%rbp), %ecx
    3dbd: 80 7d eb 00                  	cmpb	$0, -21(%rbp)
    3dc1: 0f 95 c2                     	setne	%dl
    3dc4: 80 f2 ff                     	xorb	$-1, %dl
    3dc7: 80 e2 01                     	andb	$1, %dl
    3dca: 0f b6 d2                     	movzbl	%dl, %edx
    3dcd: 21 d1                        	andl	%edx, %ecx
    3dcf: 0f b6 95 9f fb ff ff         	movzbl	-1121(%rbp), %edx
    3dd6: 80 7d eb 00                  	cmpb	$0, -21(%rbp)
    3dda: 40 0f 95 c6                  	setne	%sil
    3dde: 40 80 f6 ff                  	xorb	$-1, %sil
    3de2: 40 80 e6 01                  	andb	$1, %sil
    3de6: 40 0f b6 f6                  	movzbl	%sil, %esi
    3dea: 21 f2                        	andl	%esi, %edx
    3dec: c1 e2 01                     	shll	$1, %edx
    3def: 09 d1                        	orl	%edx, %ecx
    3df1: 48 63 c9                     	movslq	%ecx, %rcx
    3df4: 48 83 e1 02                  	andq	$2, %rcx
    3df8: 48 09 c8                     	orq	%rcx, %rax
    3dfb: 0f b6 8d 9e fb ff ff         	movzbl	-1122(%rbp), %ecx
    3e02: 80 7d eb 00                  	cmpb	$0, -21(%rbp)
    3e06: 0f 95 c2                     	setne	%dl
    3e09: 80 f2 ff                     	xorb	$-1, %dl
    3e0c: 80 e2 01                     	andb	$1, %dl
    3e0f: 0f b6 d2                     	movzbl	%dl, %edx
    3e12: 21 d1                        	andl	%edx, %ecx
    3e14: 0f b6 95 9e fb ff ff         	movzbl	-1122(%rbp), %edx
    3e1b: 80 7d eb 00                  	cmpb	$0, -21(%rbp)
    3e1f: 40 0f 95 c6                  	setne	%sil
    3e23: 40 80 f6 ff                  	xorb	$-1, %sil
    3e27: 40 80 e6 01                  	andb	$1, %sil
    3e2b: 40 0f b6 f6                  	movzbl	%sil, %esi
    3e2f: 21 f2                        	andl	%esi, %edx
    3e31: c1 e2 01                     	shll	$1, %edx
    3e34: 09 d1                        	orl	%edx, %ecx
    3e36: 48 63 c9                     	movslq	%ecx, %rcx
    3e39: 48 83 e1 03                  	andq	$3, %rcx
    3e3d: 48 09 c8                     	orq	%rcx, %rax
    3e40: 48 8b 4d e0                  	movq	-32(%rbp), %rcx
    3e44: 48 83 e1 fc                  	andq	$-4, %rcx
    3e48: 48 09 c8                     	orq	%rcx, %rax
    3e4b: 48 81 c4 80 04 00 00         	addq	$1152, %rsp             ## imm = 0x480
    3e52: 5d                           	popq	%rbp
    3e53: c3                           	retq
    3e54: 66 2e 0f 1f 84 00 00 00 00 00	nopw	%cs:(%rax,%rax)
    3e5e: 66 90                        	nop

0000000000003e60 <_ROUND_TO_EVEN_64>:
    3e60: 55                           	pushq	%rbp
    3e61: 48 89 e5                     	movq	%rsp, %rbp
    3e64: 48 89 7d f8                  	movq	%rdi, -8(%rbp)
    3e68: 89 75 f4                     	movl	%esi, -12(%rbp)
    3e6b: 48 8b 45 f8                  	movq	-8(%rbp), %rax
    3e6f: 8b 4d f4                     	movl	-12(%rbp), %ecx
    3e72: 48 d3 e8                     	shrq	%cl, %rax
    3e75: 48 83 e0 01                  	andq	$1, %rax
    3e79: 88 45 f3                     	movb	%al, -13(%rbp)
    3e7c: 48 8b 45 f8                  	movq	-8(%rbp), %rax
    3e80: 8b 4d f4                     	movl	-12(%rbp), %ecx
    3e83: 83 e9 01                     	subl	$1, %ecx
    3e86: 89 c9                        	movl	%ecx, %ecx
    3e88: 48 d3 e8                     	shrq	%cl, %rax
    3e8b: 48 83 e0 01                  	andq	$1, %rax
    3e8f: 88 45 f2                     	movb	%al, -14(%rbp)
    3e92: 48 8b 45 f8                  	movq	-8(%rbp), %rax
    3e96: 8b 4d f4                     	movl	-12(%rbp), %ecx
    3e99: 83 e9 01                     	subl	$1, %ecx
    3e9c: 89 c9                        	movl	%ecx, %ecx
    3e9e: ba 01 00 00 00               	movl	$1, %edx
    3ea3: 48 d3 e2                     	shlq	%cl, %rdx
    3ea6: 48 89 d1                     	movq	%rdx, %rcx
    3ea9: 48 83 e9 01                  	subq	$1, %rcx
    3ead: 48 21 c8                     	andq	%rcx, %rax
    3eb0: 48 89 45 e8                  	movq	%rax, -24(%rbp)
    3eb4: 48 8b 45 f8                  	movq	-8(%rbp), %rax
    3eb8: 8b 4d f4                     	movl	-12(%rbp), %ecx
    3ebb: 48 d3 e8                     	shrq	%cl, %rax
    3ebe: 80 7d f3 00                  	cmpb	$0, -13(%rbp)
    3ec2: 0f 95 c1                     	setne	%cl
    3ec5: 80 f1 ff                     	xorb	$-1, %cl
    3ec8: 80 f1 ff                     	xorb	$-1, %cl
    3ecb: 80 e1 01                     	andb	$1, %cl
    3ece: 0f b6 c9                     	movzbl	%cl, %ecx
    3ed1: 80 7d f2 00                  	cmpb	$0, -14(%rbp)
    3ed5: 0f 95 c2                     	setne	%dl
    3ed8: 80 f2 ff                     	xorb	$-1, %dl
    3edb: 80 f2 ff                     	xorb	$-1, %dl
    3ede: 80 e2 01                     	andb	$1, %dl
    3ee1: 0f b6 d2                     	movzbl	%dl, %edx
    3ee4: 21 d1                        	andl	%edx, %ecx
    3ee6: 0f b6 55 f2                  	movzbl	-14(%rbp), %edx
    3eea: 48 83 7d e8 00               	cmpq	$0, -24(%rbp)
    3eef: 40 0f 95 c6                  	setne	%sil
    3ef3: 40 80 f6 ff                  	xorb	$-1, %sil
    3ef7: 40 80 f6 ff                  	xorb	$-1, %sil
    3efb: 40 80 e6 01                  	andb	$1, %sil
    3eff: 40 0f b6 f6                  	movzbl	%sil, %esi
    3f03: 21 f2                        	andl	%esi, %edx
    3f05: 09 d1                        	orl	%edx, %ecx
    3f07: 83 f9 00                     	cmpl	$0, %ecx
    3f0a: 0f 95 c1                     	setne	%cl
    3f0d: 80 f1 ff                     	xorb	$-1, %cl
    3f10: 80 f1 ff                     	xorb	$-1, %cl
    3f13: 80 e1 01                     	andb	$1, %cl
    3f16: 0f b6 c9                     	movzbl	%cl, %ecx
    3f19: 48 63 c9                     	movslq	%ecx, %rcx
    3f1c: 48 01 c8                     	addq	%rcx, %rax
    3f1f: 5d                           	popq	%rbp
    3f20: c3                           	retq
    3f21: 66 2e 0f 1f 84 00 00 00 00 00	nopw	%cs:(%rax,%rax)
    3f2b: 0f 1f 44 00 00               	nopl	(%rax,%rax)

0000000000003f30 <_fix_floor>:
    3f30: 55                           	pushq	%rbp
    3f31: 48 89 e5                     	movq	%rsp, %rbp
    3f34: 4c 8b 5d f8                  	movq	-8(%rbp), %r11
    3f38: 41 83 e3 00                  	andl	$0, %r11d
    3f3c: 41 89 fb                     	movl	%edi, %r11d
    3f3f: 49 f7 d3                     	notq	%r11
    3f42: 4c 89 5d f8                  	movq	%r11, -8(%rbp)
    3f46: 48 89 7d f8                  	movq	%rdi, -8(%rbp)
    3f4a: 48 8b 45 f8                  	movq	-8(%rbp), %rax
    3f4e: 48 83 e0 03                  	andq	$3, %rax
    3f52: 48 83 f8 02                  	cmpq	$2, %rax
    3f56: 0f 94 c0                     	sete	%al
    3f59: 24 01                        	andb	$1, %al
    3f5b: 0f b6 c0                     	movzbl	%al, %eax
    3f5e: 44 8a 5d f7                  	movb	-9(%rbp), %r11b
    3f62: 41 82                        	<unknown>
    3f64: e3 f0                        	jrcxz	0x3f56 <_fix_floor+0x26>
    3f66: 41 88 c3                     	movb	%al, %r11b
    3f69: 49 f7 d3                     	notq	%r11
    3f6c: 44 88 5d f7                  	movb	%r11b, -9(%rbp)
    3f70: 88 45 f7                     	movb	%al, -9(%rbp)
    3f73: 48 8b 45 f8                  	movq	-8(%rbp), %rax
    3f77: 48 83 e0 03                  	andq	$3, %rax
    3f7b: 48 83 f8 03                  	cmpq	$3, %rax
    3f7f: 0f 94 c0                     	sete	%al
    3f82: 24 01                        	andb	$1, %al
    3f84: 0f b6 c0                     	movzbl	%al, %eax
    3f87: 44 8a 5d f6                  	movb	-10(%rbp), %r11b
    3f8b: 41 82                        	<unknown>
    3f8d: e3 f0                        	jrcxz	0x3f7f <_fix_floor+0x4f>
    3f8f: 41 88 c3                     	movb	%al, %r11b
    3f92: 49 f7 d3                     	notq	%r11
    3f95: 44 88 5d f6                  	movb	%r11b, -10(%rbp)
    3f99: 88 45 f6                     	movb	%al, -10(%rbp)
    3f9c: 48 8b 45 f8                  	movq	-8(%rbp), %rax
    3fa0: 48 83 e0 03                  	andq	$3, %rax
    3fa4: 48 83 f8 01                  	cmpq	$1, %rax
    3fa8: 0f 94 c0                     	sete	%al
    3fab: 24 01                        	andb	$1, %al
    3fad: 0f b6 c0                     	movzbl	%al, %eax
    3fb0: 44 8a 5d f5                  	movb	-11(%rbp), %r11b
    3fb4: 41 82                        	<unknown>
    3fb6: e3 f0                        	jrcxz	0x3fa8 <_fix_floor+0x78>
    3fb8: 41 88 c3                     	movb	%al, %r11b
    3fbb: 49 f7 d3                     	notq	%r11
    3fbe: 44 88 5d f5                  	movb	%r11b, -11(%rbp)
    3fc2: 88 45 f5                     	movb	%al, -11(%rbp)
    3fc5: 48 b8 00 00 00 00 00 00 00 80	movabsq	$-9223372036854775808, %rax ## imm = 0x8000000000000000
    3fcf: 48 23 45 f8                  	andq	-8(%rbp), %rax
    3fd3: 4c 8b 5d e8                  	movq	-24(%rbp), %r11
    3fd7: 41 83 e3 00                  	andl	$0, %r11d
    3fdb: 41 89 c3                     	movl	%eax, %r11d
    3fde: 49 f7 d3                     	notq	%r11
    3fe1: 4c 89 5d e8                  	movq	%r11, -24(%rbp)
    3fe5: 48 89 45 e8                  	movq	%rax, -24(%rbp)
    3fe9: 0f b6 45 f5                  	movzbl	-11(%rbp), %eax
    3fed: 0f b6 4d f5                  	movzbl	-11(%rbp), %ecx
    3ff1: c1 e1 01                     	shll	$1, %ecx
    3ff4: 09 c8                        	orl	%ecx, %eax
    3ff6: 48 98                        	cltq
    3ff8: 48 83 e0 01                  	andq	$1, %rax
    3ffc: 0f b6 4d f7                  	movzbl	-9(%rbp), %ecx
    4000: 80 7d f5 00                  	cmpb	$0, -11(%rbp)
    4004: 0f 95 c2                     	setne	%dl
    4007: 80 f2 ff                     	xorb	$-1, %dl
    400a: 80 e2 01                     	andb	$1, %dl
    400d: 0f b6 d2                     	movzbl	%dl, %edx
    4010: 21 d1                        	andl	%edx, %ecx
    4012: 0f b6 55 f7                  	movzbl	-9(%rbp), %edx
    4016: 80 7d f5 00                  	cmpb	$0, -11(%rbp)
    401a: 40 0f 95 c6                  	setne	%sil
    401e: 40 80 f6 ff                  	xorb	$-1, %sil
    4022: 40 80 e6 01                  	andb	$1, %sil
    4026: 40 0f b6 f6                  	movzbl	%sil, %esi
    402a: 21 f2                        	andl	%esi, %edx
    402c: c1 e2 01                     	shll	$1, %edx
    402f: 09 d1                        	orl	%edx, %ecx
    4031: 48 63 c9                     	movslq	%ecx, %rcx
    4034: 48 83 e1 02                  	andq	$2, %rcx
    4038: 48 09 c8                     	orq	%rcx, %rax
    403b: 0f b6 4d f6                  	movzbl	-10(%rbp), %ecx
    403f: 80 7d f5 00                  	cmpb	$0, -11(%rbp)
    4043: 0f 95 c2                     	setne	%dl
    4046: 80 f2 ff                     	xorb	$-1, %dl
    4049: 80 e2 01                     	andb	$1, %dl
    404c: 0f b6 d2                     	movzbl	%dl, %edx
    404f: 21 d1                        	andl	%edx, %ecx
    4051: 0f b6 55 f6                  	movzbl	-10(%rbp), %edx
    4055: 80 7d f5 00                  	cmpb	$0, -11(%rbp)
    4059: 40 0f 95 c6                  	setne	%sil
    405d: 40 80 f6 ff                  	xorb	$-1, %sil
    4061: 40 80 e6 01                  	andb	$1, %sil
    4065: 40 0f b6 f6                  	movzbl	%sil, %esi
    4069: 21 f2                        	andl	%esi, %edx
    406b: c1 e2 01                     	shll	$1, %edx
    406e: 09 d1                        	orl	%edx, %ecx
    4070: 48 63 c9                     	movslq	%ecx, %rcx
    4073: 48 83 e1 03                  	andq	$3, %rcx
    4077: 48 09 c8                     	orq	%rcx, %rax
    407a: 48 8b 4d e8                  	movq	-24(%rbp), %rcx
    407e: 48 83 e1 fc                  	andq	$-4, %rcx
    4082: 48 09 c8                     	orq	%rcx, %rax
    4085: 5d                           	popq	%rbp
    4086: c3                           	retq
    4087: 66 0f 1f 84 00 00 00 00 00   	nopw	(%rax,%rax)

0000000000004090 <_fix_ceil>:
    4090: 55                           	pushq	%rbp
    4091: 48 89 e5                     	movq	%rsp, %rbp
    4094: 4c 8b 5d f8                  	movq	-8(%rbp), %r11
    4098: 41 83 e3 00                  	andl	$0, %r11d
    409c: 41 89 fb                     	movl	%edi, %r11d
    409f: 49 f7 d3                     	notq	%r11
    40a2: 4c 89 5d f8                  	movq	%r11, -8(%rbp)
    40a6: 48 89 7d f8                  	movq	%rdi, -8(%rbp)
    40aa: 48 8b 45 f8                  	movq	-8(%rbp), %rax
    40ae: 48 83 e0 03                  	andq	$3, %rax
    40b2: 48 83 f8 02                  	cmpq	$2, %rax
    40b6: 0f 94 c0                     	sete	%al
    40b9: 24 01                        	andb	$1, %al
    40bb: 0f b6 c0                     	movzbl	%al, %eax
    40be: 44 8a 5d f7                  	movb	-9(%rbp), %r11b
    40c2: 41 82                        	<unknown>
    40c4: e3 f0                        	jrcxz	0x40b6 <_fix_ceil+0x26>
    40c6: 41 88 c3                     	movb	%al, %r11b
    40c9: 49 f7 d3                     	notq	%r11
    40cc: 44 88 5d f7                  	movb	%r11b, -9(%rbp)
    40d0: 88 45 f7                     	movb	%al, -9(%rbp)
    40d3: 48 8b 45 f8                  	movq	-8(%rbp), %rax
    40d7: 48 83 e0 03                  	andq	$3, %rax
    40db: 48 83 f8 03                  	cmpq	$3, %rax
    40df: 0f 94 c0                     	sete	%al
    40e2: 24 01                        	andb	$1, %al
    40e4: 0f b6 c0                     	movzbl	%al, %eax
    40e7: 44 8a 5d f6                  	movb	-10(%rbp), %r11b
    40eb: 41 82                        	<unknown>
    40ed: e3 f0                        	jrcxz	0x40df <_fix_ceil+0x4f>
    40ef: 41 88 c3                     	movb	%al, %r11b
    40f2: 49 f7 d3                     	notq	%r11
    40f5: 44 88 5d f6                  	movb	%r11b, -10(%rbp)
    40f9: 88 45 f6                     	movb	%al, -10(%rbp)
    40fc: 48 8b 45 f8                  	movq	-8(%rbp), %rax
    4100: 48 83 e0 03                  	andq	$3, %rax
    4104: 48 83 f8 01                  	cmpq	$1, %rax
    4108: 0f 94 c0                     	sete	%al
    410b: 24 01                        	andb	$1, %al
    410d: 0f b6 c0                     	movzbl	%al, %eax
    4110: 44 8a 5d f5                  	movb	-11(%rbp), %r11b
    4114: 41 82                        	<unknown>
    4116: e3 f0                        	jrcxz	0x4108 <_fix_ceil+0x78>
    4118: 41 88 c3                     	movb	%al, %r11b
    411b: 49 f7 d3                     	notq	%r11
    411e: 44 88 5d f5                  	movb	%r11b, -11(%rbp)
    4122: 88 45 f5                     	movb	%al, -11(%rbp)
    4125: 48 b8 00 00 00 00 00 00 00 80	movabsq	$-9223372036854775808, %rax ## imm = 0x8000000000000000
    412f: 48 23 45 f8                  	andq	-8(%rbp), %rax
    4133: 48 b9 00 00 00 00 00 00 00 80	movabsq	$-9223372036854775808, %rcx ## imm = 0x8000000000000000
    413d: 48 39 c8                     	cmpq	%rcx, %rax
    4140: 0f 94 c0                     	sete	%al
    4143: 34 ff                        	xorb	$-1, %al
    4145: 24 01                        	andb	$1, %al
    4147: 0f b6 c0                     	movzbl	%al, %eax
    414a: 44 8a 5d f4                  	movb	-12(%rbp), %r11b
    414e: 41 82                        	<unknown>
    4150: e3 f0                        	jrcxz	0x4142 <_fix_ceil+0xb2>
    4152: 41 88 c3                     	movb	%al, %r11b
    4155: 49 f7 d3                     	notq	%r11
    4158: 44 88 5d f4                  	movb	%r11b, -12(%rbp)
    415c: 88 45 f4                     	movb	%al, -12(%rbp)
    415f: 48 b8 ff ff ff ff ff ff ff 7f	movabsq	$9223372036854775807, %rax ## imm = 0x7FFFFFFFFFFFFFFF
    4169: 4c 8b 5d e8                  	movq	-24(%rbp), %r11
    416d: 41 83 e3 00                  	andl	$0, %r11d
    4171: 41 89 c3                     	movl	%eax, %r11d
    4174: 49 f7 d3                     	notq	%r11
    4177: 4c 89 5d e8                  	movq	%r11, -24(%rbp)
    417b: 48 89 45 e8                  	movq	%rax, -24(%rbp)
    417f: 48 8b 45 f8                  	movq	-8(%rbp), %rax
    4183: 48 8b 4d e8                  	movq	-24(%rbp), %rcx
    4187: 48 83 f1 ff                  	xorq	$-1, %rcx
    418b: 48 21 c8                     	andq	%rcx, %rax
    418e: 48 c7 45 d8 01 00 00 00      	movq	$1, -40(%rbp)
    4196: 48 8b 4d f8                  	movq	-8(%rbp), %rcx
    419a: 48 23 4d e8                  	andq	-24(%rbp), %rcx
    419e: 48 83 f9 00                  	cmpq	$0, %rcx
    41a2: 0f 95 c1                     	setne	%cl
    41a5: 80 f1 ff                     	xorb	$-1, %cl
    41a8: 80 f1 ff                     	xorb	$-1, %cl
    41ab: 80 f1 ff                     	xorb	$-1, %cl
    41ae: 80 f1 ff                     	xorb	$-1, %cl
    41b1: 80 e1 01                     	andb	$1, %cl
    41b4: 0f b6 c9                     	movzbl	%cl, %ecx
    41b7: 48 63 c9                     	movslq	%ecx, %rcx
    41ba: 48 33 4d d8                  	xorq	-40(%rbp), %rcx
    41be: 48 2b 4d d8                  	subq	-40(%rbp), %rcx
    41c2: 4c 8b 5d d0                  	movq	-48(%rbp), %r11
    41c6: 41 83 e3 00                  	andl	$0, %r11d
    41ca: 41 89 cb                     	movl	%ecx, %r11d
    41cd: 49 f7 d3                     	notq	%r11
    41d0: 4c 89 5d d0                  	movq	%r11, -48(%rbp)
    41d4: 48 89 4d d0                  	movq	%rcx, -48(%rbp)
    41d8: 48 b9 00 00 00 00 00 00 00 80	movabsq	$-9223372036854775808, %rcx ## imm = 0x8000000000000000
    41e2: 48 23 4d d0                  	andq	-48(%rbp), %rcx
    41e6: 48 01 c8                     	addq	%rcx, %rax
    41e9: 4c 8b 5d e0                  	movq	-32(%rbp), %r11
    41ed: 41 83 e3 00                  	andl	$0, %r11d
    41f1: 41 89 c3                     	movl	%eax, %r11d
    41f4: 49 f7 d3                     	notq	%r11
    41f7: 4c 89 5d e0                  	movq	%r11, -32(%rbp)
    41fb: 48 89 45 e0                  	movq	%rax, -32(%rbp)
    41ff: 48 b8 00 00 00 00 00 00 00 80	movabsq	$-9223372036854775808, %rax ## imm = 0x8000000000000000
    4209: 48 39 45 e0                  	cmpq	%rax, -32(%rbp)
    420d: 0f 94 c0                     	sete	%al
    4210: 24 01                        	andb	$1, %al
    4212: 0f b6 c8                     	movzbl	%al, %ecx
    4215: 0f b6 45 f4                  	movzbl	-12(%rbp), %eax
    4219: 21 c1                        	andl	%eax, %ecx
    421b: 0f b6 45 f7                  	movzbl	-9(%rbp), %eax
    421f: 09 c8                        	orl	%ecx, %eax
    4221: 44 8a 5d f7                  	movb	-9(%rbp), %r11b
    4225: 41 82                        	<unknown>
    4227: e3 f0                        	jrcxz	0x4219 <_fix_ceil+0x189>
    4229: 41 88 c3                     	movb	%al, %r11b
    422c: 49 f7 d3                     	notq	%r11
    422f: 44 88 5d f7                  	movb	%r11b, -9(%rbp)
    4233: 88 45 f7                     	movb	%al, -9(%rbp)
    4236: 0f b6 45 f5                  	movzbl	-11(%rbp), %eax
    423a: 0f b6 4d f5                  	movzbl	-11(%rbp), %ecx
    423e: c1 e1 01                     	shll	$1, %ecx
    4241: 09 c8                        	orl	%ecx, %eax
    4243: 48 98                        	cltq
    4245: 48 83 e0 01                  	andq	$1, %rax
    4249: 0f b6 4d f7                  	movzbl	-9(%rbp), %ecx
    424d: 80 7d f5 00                  	cmpb	$0, -11(%rbp)
    4251: 0f 95 c2                     	setne	%dl
    4254: 80 f2 ff                     	xorb	$-1, %dl
    4257: 80 e2 01                     	andb	$1, %dl
    425a: 0f b6 d2                     	movzbl	%dl, %edx
    425d: 21 d1                        	andl	%edx, %ecx
    425f: 0f b6 55 f7                  	movzbl	-9(%rbp), %edx
    4263: 80 7d f5 00                  	cmpb	$0, -11(%rbp)
    4267: 40 0f 95 c6                  	setne	%sil
    426b: 40 80 f6 ff                  	xorb	$-1, %sil
    426f: 40 80 e6 01                  	andb	$1, %sil
    4273: 40 0f b6 f6                  	movzbl	%sil, %esi
    4277: 21 f2                        	andl	%esi, %edx
    4279: c1 e2 01                     	shll	$1, %edx
    427c: 09 d1                        	orl	%edx, %ecx
    427e: 48 63 c9                     	movslq	%ecx, %rcx
    4281: 48 83 e1 02                  	andq	$2, %rcx
    4285: 48 09 c8                     	orq	%rcx, %rax
    4288: 0f b6 4d f6                  	movzbl	-10(%rbp), %ecx
    428c: 80 7d f5 00                  	cmpb	$0, -11(%rbp)
    4290: 0f 95 c2                     	setne	%dl
    4293: 80 f2 ff                     	xorb	$-1, %dl
    4296: 80 e2 01                     	andb	$1, %dl
    4299: 0f b6 d2                     	movzbl	%dl, %edx
    429c: 21 d1                        	andl	%edx, %ecx
    429e: 0f b6 55 f6                  	movzbl	-10(%rbp), %edx
    42a2: 80 7d f5 00                  	cmpb	$0, -11(%rbp)
    42a6: 40 0f 95 c6                  	setne	%sil
    42aa: 40 80 f6 ff                  	xorb	$-1, %sil
    42ae: 40 80 e6 01                  	andb	$1, %sil
    42b2: 40 0f b6 f6                  	movzbl	%sil, %esi
    42b6: 21 f2                        	andl	%esi, %edx
    42b8: c1 e2 01                     	shll	$1, %edx
    42bb: 09 d1                        	orl	%edx, %ecx
    42bd: 48 63 c9                     	movslq	%ecx, %rcx
    42c0: 48 83 e1 03                  	andq	$3, %rcx
    42c4: 48 09 c8                     	orq	%rcx, %rax
    42c7: 48 8b 4d e0                  	movq	-32(%rbp), %rcx
    42cb: 48 83 e1 fc                  	andq	$-4, %rcx
    42cf: 48 09 c8                     	orq	%rcx, %rax
    42d2: 5d                           	popq	%rbp
    42d3: c3                           	retq
    42d4: 66 2e 0f 1f 84 00 00 00 00 00	nopw	%cs:(%rax,%rax)
    42de: 66 90                        	nop

00000000000042e0 <_fix_convert_from_double>:
    42e0: 55                           	pushq	%rbp
    42e1: 48 89 e5                     	movq	%rsp, %rbp
    42e4: 48 81 ec 00 01 00 00         	subq	$256, %rsp              ## imm = 0x100
    42eb: f2 0f 11 45 f8               	movsd	%xmm0, -8(%rbp)
    42f0: 48 8b 45 f8                  	movq	-8(%rbp), %rax
    42f4: 4c 8b 5d f0                  	movq	-16(%rbp), %r11
    42f8: 41 83 e3 00                  	andl	$0, %r11d
    42fc: 41 89 c3                     	movl	%eax, %r11d
    42ff: 49 f7 d3                     	notq	%r11
    4302: 4c 89 5d f0                  	movq	%r11, -16(%rbp)
    4306: 48 89 45 f0                  	movq	%rax, -16(%rbp)
    430a: 48 8b 45 f0                  	movq	-16(%rbp), %rax
    430e: 48 c1 e8 34                  	shrq	$52, %rax
    4312: 48 25 ff 07 00 00            	andq	$2047, %rax             ## imm = 0x7FF
    4318: 89 45 ec                     	movl	%eax, -20(%rbp)
    431b: 48 b8 ff ff ff ff ff ff 0f 00	movabsq	$4503599627370495, %rax ## imm = 0xFFFFFFFFFFFFF
    4325: 48 23 45 f0                  	andq	-16(%rbp), %rax
    4329: 4c 8b 5d e0                  	movq	-32(%rbp), %r11
    432d: 41 83 e3 00                  	andl	$0, %r11d
    4331: 41 89 c3                     	movl	%eax, %r11d
    4334: 49 f7 d3                     	notq	%r11
    4337: 4c 89 5d e0                  	movq	%r11, -32(%rbp)
    433b: 48 89 45 e0                  	movq	%rax, -32(%rbp)
    433f: 83 7d ec 00                  	cmpl	$0, -20(%rbp)
    4343: 0f 94 c0                     	sete	%al
    4346: 24 01                        	andb	$1, %al
    4348: 0f b6 c0                     	movzbl	%al, %eax
    434b: 48 83 7d e0 00               	cmpq	$0, -32(%rbp)
    4350: 0f 94 c1                     	sete	%cl
    4353: 80 e1 01                     	andb	$1, %cl
    4356: 0f b6 c9                     	movzbl	%cl, %ecx
    4359: 21 c8                        	andl	%ecx, %eax
    435b: 44 8a 5d df                  	movb	-33(%rbp), %r11b
    435f: 41 82                        	<unknown>
    4361: e3 f0                        	jrcxz	0x4353 <_fix_convert_from_double+0x73>
    4363: 41 88 c3                     	movb	%al, %r11b
    4366: 49 f7 d3                     	notq	%r11
    4369: 44 88 5d df                  	movb	%r11b, -33(%rbp)
    436d: 88 45 df                     	movb	%al, -33(%rbp)
    4370: 8b 45 ec                     	movl	-20(%rbp), %eax
    4373: 2d ff 03 00 00               	subl	$1023, %eax             ## imm = 0x3FF
    4378: 89 45 d8                     	movl	%eax, -40(%rbp)
    437b: 48 8b 45 f0                  	movq	-16(%rbp), %rax
    437f: 48 c1 e8 3f                  	shrq	$63, %rax
    4383: 89 45 d4                     	movl	%eax, -44(%rbp)
    4386: 48 8b 45 e0                  	movq	-32(%rbp), %rax
    438a: 48 c7 45 c0 01 00 00 00      	movq	$1, -64(%rbp)
    4392: 80 7d df 00                  	cmpb	$0, -33(%rbp)
    4396: 0f 95 c1                     	setne	%cl
    4399: 80 f1 ff                     	xorb	$-1, %cl
    439c: 80 f1 ff                     	xorb	$-1, %cl
    439f: 80 f1 ff                     	xorb	$-1, %cl
    43a2: 80 e1 01                     	andb	$1, %cl
    43a5: 0f b6 c9                     	movzbl	%cl, %ecx
    43a8: 48 63 c9                     	movslq	%ecx, %rcx
    43ab: 48 33 4d c0                  	xorq	-64(%rbp), %rcx
    43af: 48 2b 4d c0                  	subq	-64(%rbp), %rcx
    43b3: 4c 8b 5d b8                  	movq	-72(%rbp), %r11
    43b7: 41 83 e3 00                  	andl	$0, %r11d
    43bb: 41 89 cb                     	movl	%ecx, %r11d
    43be: 49 f7 d3                     	notq	%r11
    43c1: 4c 89 5d b8                  	movq	%r11, -72(%rbp)
    43c5: 48 89 4d b8                  	movq	%rcx, -72(%rbp)
    43c9: 48 b9 00 00 00 00 00 00 10 00	movabsq	$4503599627370496, %rcx ## imm = 0x10000000000000
    43d3: 48 23 4d b8                  	andq	-72(%rbp), %rcx
    43d7: 48 09 c8                     	orq	%rcx, %rax
    43da: 4c 8b 5d c8                  	movq	-56(%rbp), %r11
    43de: 41 83 e3 00                  	andl	$0, %r11d
    43e2: 41 89 c3                     	movl	%eax, %r11d
    43e5: 49 f7 d3                     	notq	%r11
    43e8: 4c 89 5d c8                  	movq	%r11, -56(%rbp)
    43ec: 48 89 45 c8                  	movq	%rax, -56(%rbp)
    43f0: b8 f7 ff ff ff               	movl	$4294967287, %eax       ## imm = 0xFFFFFFF7
    43f5: 2b 45 d8                     	subl	-40(%rbp), %eax
    43f8: 89 45 b4                     	movl	%eax, -76(%rbp)
    43fb: 48 c7 45 a0 01 00 00 00      	movq	$1, -96(%rbp)
    4403: 83 7d b4 02                  	cmpl	$2, -76(%rbp)
    4407: 0f 9d c0                     	setge	%al
    440a: 24 01                        	andb	$1, %al
    440c: 0f b6 c0                     	movzbl	%al, %eax
    440f: 83 7d b4 40                  	cmpl	$64, -76(%rbp)
    4413: 0f 9c c1                     	setl	%cl
    4416: 80 e1 01                     	andb	$1, %cl
    4419: 0f b6 c9                     	movzbl	%cl, %ecx
    441c: 21 c8                        	andl	%ecx, %eax
    441e: 83 f8 00                     	cmpl	$0, %eax
    4421: 0f 95 c0                     	setne	%al
    4424: 34 ff                        	xorb	$-1, %al
    4426: 34 ff                        	xorb	$-1, %al
    4428: 24 01                        	andb	$1, %al
    442a: 0f b6 c0                     	movzbl	%al, %eax
    442d: 48 98                        	cltq
    442f: 48 33 45 a0                  	xorq	-96(%rbp), %rax
    4433: 48 2b 45 a0                  	subq	-96(%rbp), %rax
    4437: 4c 8b 5d 98                  	movq	-104(%rbp), %r11
    443b: 41 83 e3 00                  	andl	$0, %r11d
    443f: 41 89 c3                     	movl	%eax, %r11d
    4442: 49 f7 d3                     	notq	%r11
    4445: 4c 89 5d 98                  	movq	%r11, -104(%rbp)
    4449: 48 89 45 98                  	movq	%rax, -104(%rbp)
    444d: 48 8b 45 98                  	movq	-104(%rbp), %rax
    4451: 48 8b 55 c8                  	movq	-56(%rbp), %rdx
    4455: 8b 4d b4                     	movl	-76(%rbp), %ecx
    4458: 48 d3 ea                     	shrq	%cl, %rdx
    445b: 4c 8b 9d 10 ff ff ff         	movq	-240(%rbp), %r11
    4462: 41 83 e3 00                  	andl	$0, %r11d
    4466: 41 89 d3                     	movl	%edx, %r11d
    4469: 49 f7 d3                     	notq	%r11
    446c: 4c 89 9d 10 ff ff ff         	movq	%r11, -240(%rbp)
    4473: 48 89 95 10 ff ff ff         	movq	%rdx, -240(%rbp)
    447a: 48 8b 4d c8                  	movq	-56(%rbp), %rcx
    447e: 4c 8b 9d 00 ff ff ff         	movq	-256(%rbp), %r11
    4485: 41 83 e3 00                  	andl	$0, %r11d
    4489: 41 89 cb                     	movl	%ecx, %r11d
    448c: 49 f7 d3                     	notq	%r11
    448f: 4c 89 9d 00 ff ff ff         	movq	%r11, -256(%rbp)
    4496: 48 89 8d 00 ff ff ff         	movq	%rcx, -256(%rbp)
    449d: 8b 4d b4                     	movl	-76(%rbp), %ecx
    44a0: 83 e9 01                     	subl	$1, %ecx
    44a3: 89 c9                        	movl	%ecx, %ecx
    44a5: ba 01 00 00 00               	movl	$1, %edx
    44aa: 48 d3 e2                     	shlq	%cl, %rdx
    44ad: 48 8b 8d 00 ff ff ff         	movq	-256(%rbp), %rcx
    44b4: 48 21 d1                     	andq	%rdx, %rcx
    44b7: 48 83 f9 00                  	cmpq	$0, %rcx
    44bb: 0f 95 c1                     	setne	%cl
    44be: 80 f1 ff                     	xorb	$-1, %cl
    44c1: 80 f1 ff                     	xorb	$-1, %cl
    44c4: 80 e1 01                     	andb	$1, %cl
    44c7: 0f b6 d1                     	movzbl	%cl, %edx
    44ca: 48 8b 4d c8                  	movq	-56(%rbp), %rcx
    44ce: 4c 8b 9d 08 ff ff ff         	movq	-248(%rbp), %r11
    44d5: 41 83 e3 00                  	andl	$0, %r11d
    44d9: 41 89 cb                     	movl	%ecx, %r11d
    44dc: 49 f7 d3                     	notq	%r11
    44df: 4c 89 9d 08 ff ff ff         	movq	%r11, -248(%rbp)
    44e6: 48 89 8d 08 ff ff ff         	movq	%rcx, -248(%rbp)
    44ed: 8b 4d b4                     	movl	-76(%rbp), %ecx
    44f0: 83 e9 01                     	subl	$1, %ecx
    44f3: 89 c9                        	movl	%ecx, %ecx
    44f5: be 01 00 00 00               	movl	$1, %esi
    44fa: 48 d3 e6                     	shlq	%cl, %rsi
    44fd: 48 8b 8d 08 ff ff ff         	movq	-248(%rbp), %rcx
    4504: 48 83 ee 01                  	subq	$1, %rsi
    4508: 48 21 f1                     	andq	%rsi, %rcx
    450b: 48 83 f9 00                  	cmpq	$0, %rcx
    450f: 0f 95 c1                     	setne	%cl
    4512: 80 f1 ff                     	xorb	$-1, %cl
    4515: 80 f1 ff                     	xorb	$-1, %cl
    4518: 80 e1 01                     	andb	$1, %cl
    451b: 0f b6 c9                     	movzbl	%cl, %ecx
    451e: 21 ca                        	andl	%ecx, %edx
    4520: 48 8b 75 c8                  	movq	-56(%rbp), %rsi
    4524: 8b 4d b4                     	movl	-76(%rbp), %ecx
    4527: 83 e9 02                     	subl	$2, %ecx
    452a: 89 c9                        	movl	%ecx, %ecx
    452c: 48 d3 ee                     	shrq	%cl, %rsi
    452f: 48 8b 8d 10 ff ff ff         	movq	-240(%rbp), %rcx
    4536: 48 83 e6 06                  	andq	$6, %rsi
    453a: 48 83 fe 06                  	cmpq	$6, %rsi
    453e: 40 0f 94 c6                  	sete	%sil
    4542: 40 80 e6 01                  	andb	$1, %sil
    4546: 40 0f b6 f6                  	movzbl	%sil, %esi
    454a: 09 f2                        	orl	%esi, %edx
    454c: 83 fa 00                     	cmpl	$0, %edx
    454f: 0f 95 c2                     	setne	%dl
    4552: 80 f2 ff                     	xorb	$-1, %dl
    4555: 80 f2 ff                     	xorb	$-1, %dl
    4558: 80 e2 01                     	andb	$1, %dl
    455b: 0f b6 d2                     	movzbl	%dl, %edx
    455e: 48 63 d2                     	movslq	%edx, %rdx
    4561: 48 01 d1                     	addq	%rdx, %rcx
    4564: 48 c1 e1 02                  	shlq	$2, %rcx
    4568: 48 21 c8                     	andq	%rcx, %rax
    456b: 48 c7 45 90 01 00 00 00      	movq	$1, -112(%rbp)
    4573: 83 7d b4 01                  	cmpl	$1, -76(%rbp)
    4577: 0f 94 c1                     	sete	%cl
    457a: 80 f1 ff                     	xorb	$-1, %cl
    457d: 80 f1 ff                     	xorb	$-1, %cl
    4580: 80 e1 01                     	andb	$1, %cl
    4583: 0f b6 c9                     	movzbl	%cl, %ecx
    4586: 48 63 c9                     	movslq	%ecx, %rcx
    4589: 48 33 4d 90                  	xorq	-112(%rbp), %rcx
    458d: 48 2b 4d 90                  	subq	-112(%rbp), %rcx
    4591: 4c 8b 5d 88                  	movq	-120(%rbp), %r11
    4595: 41 83 e3 00                  	andl	$0, %r11d
    4599: 41 89 cb                     	movl	%ecx, %r11d
    459c: 49 f7 d3                     	notq	%r11
    459f: 4c 89 5d 88                  	movq	%r11, -120(%rbp)
    45a3: 48 89 4d 88                  	movq	%rcx, -120(%rbp)
    45a7: 48 8b 4d 88                  	movq	-120(%rbp), %rcx
    45ab: 48 8b 55 c8                  	movq	-56(%rbp), %rdx
    45af: 48 c1 ea 01                  	shrq	$1, %rdx
    45b3: 48 8b 75 c8                  	movq	-56(%rbp), %rsi
    45b7: 48 83 e6 03                  	andq	$3, %rsi
    45bb: 48 83 fe 03                  	cmpq	$3, %rsi
    45bf: 40 0f 94 c6                  	sete	%sil
    45c3: 40 80 e6 01                  	andb	$1, %sil
    45c7: 40 0f b6 f6                  	movzbl	%sil, %esi
    45cb: 48 63 f6                     	movslq	%esi, %rsi
    45ce: 48 01 f2                     	addq	%rsi, %rdx
    45d1: 48 c1 e2 02                  	shlq	$2, %rdx
    45d5: 48 21 d1                     	andq	%rdx, %rcx
    45d8: 48 09 c8                     	orq	%rcx, %rax
    45db: 48 c7 45 80 01 00 00 00      	movq	$1, -128(%rbp)
    45e3: 83 7d b4 00                  	cmpl	$0, -76(%rbp)
    45e7: 0f 9e c1                     	setle	%cl
    45ea: 80 e1 01                     	andb	$1, %cl
    45ed: 0f b6 c9                     	movzbl	%cl, %ecx
    45f0: 83 7d b4 c0                  	cmpl	$-64, -76(%rbp)
    45f4: 0f 9f c2                     	setg	%dl
    45f7: 80 e2 01                     	andb	$1, %dl
    45fa: 0f b6 d2                     	movzbl	%dl, %edx
    45fd: 21 d1                        	andl	%edx, %ecx
    45ff: 83 f9 00                     	cmpl	$0, %ecx
    4602: 0f 95 c1                     	setne	%cl
    4605: 80 f1 ff                     	xorb	$-1, %cl
    4608: 80 f1 ff                     	xorb	$-1, %cl
    460b: 80 e1 01                     	andb	$1, %cl
    460e: 0f b6 c9                     	movzbl	%cl, %ecx
    4611: 48 63 c9                     	movslq	%ecx, %rcx
    4614: 48 33 4d 80                  	xorq	-128(%rbp), %rcx
    4618: 48 2b 4d 80                  	subq	-128(%rbp), %rcx
    461c: 4c 8b 9d 78 ff ff ff         	movq	-136(%rbp), %r11
    4623: 41 83 e3 00                  	andl	$0, %r11d
    4627: 41 89 cb                     	movl	%ecx, %r11d
    462a: 49 f7 d3                     	notq	%r11
    462d: 4c 89 9d 78 ff ff ff         	movq	%r11, -136(%rbp)
    4634: 48 89 8d 78 ff ff ff         	movq	%rcx, -136(%rbp)
    463b: 48 8b 8d 78 ff ff ff         	movq	-136(%rbp), %rcx
    4642: 4c 8b 9d 18 ff ff ff         	movq	-232(%rbp), %r11
    4649: 41 83 e3 00                  	andl	$0, %r11d
    464d: 41 89 cb                     	movl	%ecx, %r11d
    4650: 49 f7 d3                     	notq	%r11
    4653: 4c 89 9d 18 ff ff ff         	movq	%r11, -232(%rbp)
    465a: 48 89 8d 18 ff ff ff         	movq	%rcx, -232(%rbp)
    4661: 48 8b 55 c8                  	movq	-56(%rbp), %rdx
    4665: 31 c9                        	xorl	%ecx, %ecx
    4667: 2b 4d b4                     	subl	-76(%rbp), %ecx
    466a: 83 c1 02                     	addl	$2, %ecx
    466d: 89 c9                        	movl	%ecx, %ecx
    466f: 48 d3 e2                     	shlq	%cl, %rdx
    4672: 48 8b 8d 18 ff ff ff         	movq	-232(%rbp), %rcx
    4679: 48 21 d1                     	andq	%rdx, %rcx
    467c: 48 09 c8                     	orq	%rcx, %rax
    467f: 48 83 e0 ff                  	andq	$-1, %rax
    4683: 4c 8b 5d a8                  	movq	-88(%rbp), %r11
    4687: 41 83 e3 00                  	andl	$0, %r11d
    468b: 41 89 c3                     	movl	%eax, %r11d
    468e: 49 f7 d3                     	notq	%r11
    4691: 4c 89 5d a8                  	movq	%r11, -88(%rbp)
    4695: 48 89 45 a8                  	movq	%rax, -88(%rbp)
    4699: 48 c7 85 68 ff ff ff 01 00 00 00     	movq	$1, -152(%rbp)
    46a4: 83 7d b4 00                  	cmpl	$0, -76(%rbp)
    46a8: 0f 9e c0                     	setle	%al
    46ab: 34 ff                        	xorb	$-1, %al
    46ad: 34 ff                        	xorb	$-1, %al
    46af: 24 01                        	andb	$1, %al
    46b1: 0f b6 c0                     	movzbl	%al, %eax
    46b4: 48 98                        	cltq
    46b6: 48 33 85 68 ff ff ff         	xorq	-152(%rbp), %rax
    46bd: 48 2b 85 68 ff ff ff         	subq	-152(%rbp), %rax
    46c4: 4c 8b 9d 60 ff ff ff         	movq	-160(%rbp), %r11
    46cb: 41 83 e3 00                  	andl	$0, %r11d
    46cf: 41 89 c3                     	movl	%eax, %r11d
    46d2: 49 f7 d3                     	notq	%r11
    46d5: 4c 89 9d 60 ff ff ff         	movq	%r11, -160(%rbp)
    46dc: 48 89 85 60 ff ff ff         	movq	%rax, -160(%rbp)
    46e3: 48 8b 85 60 ff ff ff         	movq	-160(%rbp), %rax
    46ea: 48 8b 4d c8                  	movq	-56(%rbp), %rcx
    46ee: 4c 8b 9d 20 ff ff ff         	movq	-224(%rbp), %r11
    46f5: 41 83 e3 00                  	andl	$0, %r11d
    46f9: 41 89 cb                     	movl	%ecx, %r11d
    46fc: 49 f7 d3                     	notq	%r11
    46ff: 4c 89 9d 20 ff ff ff         	movq	%r11, -224(%rbp)
    4706: 48 89 8d 20 ff ff ff         	movq	%rcx, -224(%rbp)
    470d: 48 8b 55 a8                  	movq	-88(%rbp), %rdx
    4711: 31 c9                        	xorl	%ecx, %ecx
    4713: 2b 4d b4                     	subl	-76(%rbp), %ecx
    4716: 83 c1 02                     	addl	$2, %ecx
    4719: 89 c9                        	movl	%ecx, %ecx
    471b: 48 d3 ea                     	shrq	%cl, %rdx
    471e: 48 8b 8d 20 ff ff ff         	movq	-224(%rbp), %rcx
    4725: 48 39 d1                     	cmpq	%rdx, %rcx
    4728: 0f 95 c1                     	setne	%cl
    472b: 80 e1 01                     	andb	$1, %cl
    472e: 0f b6 c9                     	movzbl	%cl, %ecx
    4731: 48 63 c9                     	movslq	%ecx, %rcx
    4734: 48 21 c8                     	andq	%rcx, %rax
    4737: 44 8a 9d 77 ff ff ff         	movb	-137(%rbp), %r11b
    473e: 41 82                        	<unknown>
    4740: e3 f0                        	jrcxz	0x4732 <_fix_convert_from_double+0x452>
    4742: 41 88 c3                     	movb	%al, %r11b
    4745: 49 f7 d3                     	notq	%r11
    4748: 44 88 9d 77 ff ff ff         	movb	%r11b, -137(%rbp)
    474f: 88 85 77 ff ff ff            	movb	%al, -137(%rbp)
    4755: 81 7d ec ff 07 00 00         	cmpl	$2047, -20(%rbp)        ## imm = 0x7FF
    475c: 0f 94 c0                     	sete	%al
    475f: 24 01                        	andb	$1, %al
    4761: 0f b6 c0                     	movzbl	%al, %eax
    4764: 48 83 7d e0 00               	cmpq	$0, -32(%rbp)
    4769: 0f 94 c1                     	sete	%cl
    476c: 80 e1 01                     	andb	$1, %cl
    476f: 0f b6 c9                     	movzbl	%cl, %ecx
    4772: 21 c8                        	andl	%ecx, %eax
    4774: 44 8a 9d 5f ff ff ff         	movb	-161(%rbp), %r11b
    477b: 41 82                        	<unknown>
    477d: e3 f0                        	jrcxz	0x476f <_fix_convert_from_double+0x48f>
    477f: 41 88 c3                     	movb	%al, %r11b
    4782: 49 f7 d3                     	notq	%r11
    4785: 44 88 9d 5f ff ff ff         	movb	%r11b, -161(%rbp)
    478c: 88 85 5f ff ff ff            	movb	%al, -161(%rbp)
    4792: 0f b6 8d 77 ff ff ff         	movzbl	-137(%rbp), %ecx
    4799: 0f b6 85 5f ff ff ff         	movzbl	-161(%rbp), %eax
    47a0: 09 c8                        	orl	%ecx, %eax
    47a2: 44 8a 9d 5f ff ff ff         	movb	-161(%rbp), %r11b
    47a9: 41 82                        	<unknown>
    47ab: e3 f0                        	jrcxz	0x479d <_fix_convert_from_double+0x4bd>
    47ad: 41 88 c3                     	movb	%al, %r11b
    47b0: 49 f7 d3                     	notq	%r11
    47b3: 44 88 9d 5f ff ff ff         	movb	%r11b, -161(%rbp)
    47ba: 88 85 5f ff ff ff            	movb	%al, -161(%rbp)
    47c0: 48 b8 00 00 00 00 00 00 00 80	movabsq	$-9223372036854775808, %rax ## imm = 0x8000000000000000
    47ca: 48 39 45 a8                  	cmpq	%rax, -88(%rbp)
    47ce: 0f 93 c0                     	setae	%al
    47d1: 24 01                        	andb	$1, %al
    47d3: 0f b6 c8                     	movzbl	%al, %ecx
    47d6: 83 7d d4 00                  	cmpl	$0, -44(%rbp)
    47da: 0f 95 c0                     	setne	%al
    47dd: 34 ff                        	xorb	$-1, %al
    47df: 24 01                        	andb	$1, %al
    47e1: 0f b6 c0                     	movzbl	%al, %eax
    47e4: 21 c1                        	andl	%eax, %ecx
    47e6: 0f b6 85 5f ff ff ff         	movzbl	-161(%rbp), %eax
    47ed: 09 c8                        	orl	%ecx, %eax
    47ef: 44 8a 9d 5f ff ff ff         	movb	-161(%rbp), %r11b
    47f6: 41 82                        	<unknown>
    47f8: e3 f0                        	jrcxz	0x47ea <_fix_convert_from_double+0x50a>
    47fa: 41 88 c3                     	movb	%al, %r11b
    47fd: 49 f7 d3                     	notq	%r11
    4800: 44 88 9d 5f ff ff ff         	movb	%r11b, -161(%rbp)
    4807: 88 85 5f ff ff ff            	movb	%al, -161(%rbp)
    480d: 48 b8 00 00 00 00 00 00 00 80	movabsq	$-9223372036854775808, %rax ## imm = 0x8000000000000000
    4817: 48 39 45 a8                  	cmpq	%rax, -88(%rbp)
    481b: 0f 97 c0                     	seta	%al
    481e: 24 01                        	andb	$1, %al
    4820: 0f b6 c8                     	movzbl	%al, %ecx
    4823: 23 4d d4                     	andl	-44(%rbp), %ecx
    4826: 0f b6 85 5f ff ff ff         	movzbl	-161(%rbp), %eax
    482d: 09 c8                        	orl	%ecx, %eax
    482f: 44 8a 9d 5f ff ff ff         	movb	-161(%rbp), %r11b
    4836: 41 82                        	<unknown>
    4838: e3 f0                        	jrcxz	0x482a <_fix_convert_from_double+0x54a>
    483a: 41 88 c3                     	movb	%al, %r11b
    483d: 49 f7 d3                     	notq	%r11
    4840: 44 88 9d 5f ff ff ff         	movb	%r11b, -161(%rbp)
    4847: 88 85 5f ff ff ff            	movb	%al, -161(%rbp)
    484d: 83 7d d4 00                  	cmpl	$0, -44(%rbp)
    4851: 0f 94 c0                     	sete	%al
    4854: 24 01                        	andb	$1, %al
    4856: 0f b6 c0                     	movzbl	%al, %eax
    4859: 0f b6 8d 5f ff ff ff         	movzbl	-161(%rbp), %ecx
    4860: 21 c8                        	andl	%ecx, %eax
    4862: 44 8a 9d 5e ff ff ff         	movb	-162(%rbp), %r11b
    4869: 41 82                        	<unknown>
    486b: e3 f0                        	jrcxz	0x485d <_fix_convert_from_double+0x57d>
    486d: 41 88 c3                     	movb	%al, %r11b
    4870: 49 f7 d3                     	notq	%r11
    4873: 44 88 9d 5e ff ff ff         	movb	%r11b, -162(%rbp)
    487a: 88 85 5e ff ff ff            	movb	%al, -162(%rbp)
    4880: 83 7d d4 00                  	cmpl	$0, -44(%rbp)
    4884: 0f 95 c0                     	setne	%al
    4887: 24 01                        	andb	$1, %al
    4889: 0f b6 c0                     	movzbl	%al, %eax
    488c: 0f b6 8d 5f ff ff ff         	movzbl	-161(%rbp), %ecx
    4893: 21 c8                        	andl	%ecx, %eax
    4895: 44 8a 9d 5d ff ff ff         	movb	-163(%rbp), %r11b
    489c: 41 82                        	<unknown>
    489e: e3 f0                        	jrcxz	0x4890 <_fix_convert_from_double+0x5b0>
    48a0: 41 88 c3                     	movb	%al, %r11b
    48a3: 49 f7 d3                     	notq	%r11
    48a6: 44 88 9d 5d ff ff ff         	movb	%r11b, -163(%rbp)
    48ad: 88 85 5d ff ff ff            	movb	%al, -163(%rbp)
    48b3: 31 c0                        	xorl	%eax, %eax
    48b5: 81 7d ec ff 07 00 00         	cmpl	$2047, -20(%rbp)        ## imm = 0x7FF
    48bc: 44 8a 9d 2f ff ff ff         	movb	-209(%rbp), %r11b
    48c3: 41 82                        	<unknown>
    48c5: e3 f0                        	jrcxz	0x48b7 <_fix_convert_from_double+0x5d7>
    48c7: 41 88 c3                     	movb	%al, %r11b
    48ca: 49 f7 d3                     	notq	%r11
    48cd: 44 88 9d 2f ff ff ff         	movb	%r11b, -209(%rbp)
    48d4: 88 85 2f ff ff ff            	movb	%al, -209(%rbp)
    48da: 0f 85 26 00 00 00            	jne	0x4906 <_fix_convert_from_double+0x626>
    48e0: 48 83 7d e0 00               	cmpq	$0, -32(%rbp)
    48e5: 0f 95 c0                     	setne	%al
    48e8: 44 8a 9d 2f ff ff ff         	movb	-209(%rbp), %r11b
    48ef: 41 82                        	<unknown>
    48f1: e3 f0                        	jrcxz	0x48e3 <_fix_convert_from_double+0x603>
    48f3: 41 88 c3                     	movb	%al, %r11b
    48f6: 49 f7 d3                     	notq	%r11
    48f9: 44 88 9d 2f ff ff ff         	movb	%r11b, -209(%rbp)
    4900: 88 85 2f ff ff ff            	movb	%al, -209(%rbp)
    4906: 8a 85 2f ff ff ff            	movb	-209(%rbp), %al
    490c: 24 01                        	andb	$1, %al
    490e: 0f b6 c0                     	movzbl	%al, %eax
    4911: 44 8a 9d 5c ff ff ff         	movb	-164(%rbp), %r11b
    4918: 41 82                        	<unknown>
    491a: e3 f0                        	jrcxz	0x490c <_fix_convert_from_double+0x62c>
    491c: 41 88 c3                     	movb	%al, %r11b
    491f: 49 f7 d3                     	notq	%r11
    4922: 44 88 9d 5c ff ff ff         	movb	%r11b, -164(%rbp)
    4929: 88 85 5c ff ff ff            	movb	%al, -164(%rbp)
    492f: 48 8b 7d a8                  	movq	-88(%rbp), %rdi
    4933: e8 00 00 00 00               	callq	0x4938 <_fix_convert_from_double+0x658>
    4938: 4c 8b 9d 50 ff ff ff         	movq	-176(%rbp), %r11
    493f: 41 83 e3 00                  	andl	$0, %r11d
    4943: 41 89 c3                     	movl	%eax, %r11d
    4946: 49 f7 d3                     	notq	%r11
    4949: 4c 89 9d 50 ff ff ff         	movq	%r11, -176(%rbp)
    4950: 48 89 85 50 ff ff ff         	movq	%rax, -176(%rbp)
    4957: 0f b6 85 5c ff ff ff         	movzbl	-164(%rbp), %eax
    495e: 0f b6 8d 5c ff ff ff         	movzbl	-164(%rbp), %ecx
    4965: c1 e1 01                     	shll	$1, %ecx
    4968: 09 c8                        	orl	%ecx, %eax
    496a: 48 98                        	cltq
    496c: 48 83 e0 01                  	andq	$1, %rax
    4970: 0f b6 8d 5e ff ff ff         	movzbl	-162(%rbp), %ecx
    4977: 80 bd 5c ff ff ff 00         	cmpb	$0, -164(%rbp)
    497e: 0f 95 c2                     	setne	%dl
    4981: 80 f2 ff                     	xorb	$-1, %dl
    4984: 80 e2 01                     	andb	$1, %dl
    4987: 0f b6 d2                     	movzbl	%dl, %edx
    498a: 21 d1                        	andl	%edx, %ecx
    498c: 0f b6 95 5e ff ff ff         	movzbl	-162(%rbp), %edx
    4993: 80 bd 5c ff ff ff 00         	cmpb	$0, -164(%rbp)
    499a: 40 0f 95 c6                  	setne	%sil
    499e: 40 80 f6 ff                  	xorb	$-1, %sil
    49a2: 40 80 e6 01                  	andb	$1, %sil
    49a6: 40 0f b6 f6                  	movzbl	%sil, %esi
    49aa: 21 f2                        	andl	%esi, %edx
    49ac: c1 e2 01                     	shll	$1, %edx
    49af: 09 d1                        	orl	%edx, %ecx
    49b1: 48 63 c9                     	movslq	%ecx, %rcx
    49b4: 48 83 e1 02                  	andq	$2, %rcx
    49b8: 48 09 c8                     	orq	%rcx, %rax
    49bb: 0f b6 8d 5d ff ff ff         	movzbl	-163(%rbp), %ecx
    49c2: 80 bd 5c ff ff ff 00         	cmpb	$0, -164(%rbp)
    49c9: 0f 95 c2                     	setne	%dl
    49cc: 80 f2 ff                     	xorb	$-1, %dl
    49cf: 80 e2 01                     	andb	$1, %dl
    49d2: 0f b6 d2                     	movzbl	%dl, %edx
    49d5: 21 d1                        	andl	%edx, %ecx
    49d7: 0f b6 95 5d ff ff ff         	movzbl	-163(%rbp), %edx
    49de: 80 bd 5c ff ff ff 00         	cmpb	$0, -164(%rbp)
    49e5: 40 0f 95 c6                  	setne	%sil
    49e9: 40 80 f6 ff                  	xorb	$-1, %sil
    49ed: 40 80 e6 01                  	andb	$1, %sil
    49f1: 40 0f b6 f6                  	movzbl	%sil, %esi
    49f5: 21 f2                        	andl	%esi, %edx
    49f7: c1 e2 01                     	shll	$1, %edx
    49fa: 09 d1                        	orl	%edx, %ecx
    49fc: 48 63 c9                     	movslq	%ecx, %rcx
    49ff: 48 83 e1 03                  	andq	$3, %rcx
    4a03: 48 09 c8                     	orq	%rcx, %rax
    4a06: 48 c7 85 48 ff ff ff 01 00 00 00     	movq	$1, -184(%rbp)
    4a11: 83 7d d4 00                  	cmpl	$0, -44(%rbp)
    4a15: 0f 95 c1                     	setne	%cl
    4a18: 80 f1 ff                     	xorb	$-1, %cl
    4a1b: 80 f1 ff                     	xorb	$-1, %cl
    4a1e: 80 f1 ff                     	xorb	$-1, %cl
    4a21: 80 e1 01                     	andb	$1, %cl
    4a24: 0f b6 c9                     	movzbl	%cl, %ecx
    4a27: 48 63 c9                     	movslq	%ecx, %rcx
    4a2a: 48 33 8d 48 ff ff ff         	xorq	-184(%rbp), %rcx
    4a31: 48 2b 8d 48 ff ff ff         	subq	-184(%rbp), %rcx
    4a38: 4c 8b 9d 40 ff ff ff         	movq	-192(%rbp), %r11
    4a3f: 41 83 e3 00                  	andl	$0, %r11d
    4a43: 41 89 cb                     	movl	%ecx, %r11d
    4a46: 49 f7 d3                     	notq	%r11
    4a49: 4c 89 9d 40 ff ff ff         	movq	%r11, -192(%rbp)
    4a50: 48 89 8d 40 ff ff ff         	movq	%rcx, -192(%rbp)
    4a57: 48 8b 8d 40 ff ff ff         	movq	-192(%rbp), %rcx
    4a5e: 48 8b 55 a8                  	movq	-88(%rbp), %rdx
    4a62: 48 83 e2 fc                  	andq	$-4, %rdx
    4a66: 48 21 d1                     	andq	%rdx, %rcx
    4a69: 48 09 c8                     	orq	%rcx, %rax
    4a6c: 48 c7 85 38 ff ff ff 01 00 00 00     	movq	$1, -200(%rbp)
    4a77: 83 7d d4 00                  	cmpl	$0, -44(%rbp)
    4a7b: 0f 95 c1                     	setne	%cl
    4a7e: 80 f1 ff                     	xorb	$-1, %cl
    4a81: 80 f1 ff                     	xorb	$-1, %cl
    4a84: 80 e1 01                     	andb	$1, %cl
    4a87: 0f b6 c9                     	movzbl	%cl, %ecx
    4a8a: 48 63 c9                     	movslq	%ecx, %rcx
    4a8d: 48 33 8d 38 ff ff ff         	xorq	-200(%rbp), %rcx
    4a94: 48 2b 8d 38 ff ff ff         	subq	-200(%rbp), %rcx
    4a9b: 4c 8b 9d 30 ff ff ff         	movq	-208(%rbp), %r11
    4aa2: 41 83 e3 00                  	andl	$0, %r11d
    4aa6: 41 89 cb                     	movl	%ecx, %r11d
    4aa9: 49 f7 d3                     	notq	%r11
    4aac: 4c 89 9d 30 ff ff ff         	movq	%r11, -208(%rbp)
    4ab3: 48 89 8d 30 ff ff ff         	movq	%rcx, -208(%rbp)
    4aba: 48 8b 8d 30 ff ff ff         	movq	-208(%rbp), %rcx
    4ac1: 48 8b 95 50 ff ff ff         	movq	-176(%rbp), %rdx
    4ac8: 48 83 e2 fc                  	andq	$-4, %rdx
    4acc: 48 21 d1                     	andq	%rdx, %rcx
    4acf: 48 09 c8                     	orq	%rcx, %rax
    4ad2: 48 81 c4 00 01 00 00         	addq	$256, %rsp              ## imm = 0x100
    4ad9: 5d                           	popq	%rbp
    4ada: c3                           	retq
    4adb: 0f 1f 44 00 00               	nopl	(%rax,%rax)

0000000000004ae0 <_fix_convert_to_double>:
    4ae0: 55                           	pushq	%rbp
    4ae1: 48 89 e5                     	movq	%rsp, %rbp
    4ae4: 48 81 ec e0 00 00 00         	subq	$224, %rsp
    4aeb: 4c 8b 5d f8                  	movq	-8(%rbp), %r11
    4aef: 41 83 e3 00                  	andl	$0, %r11d
    4af3: 41 89 fb                     	movl	%edi, %r11d
    4af6: 49 f7 d3                     	notq	%r11
    4af9: 4c 89 5d f8                  	movq	%r11, -8(%rbp)
    4afd: 48 89 7d f8                  	movq	%rdi, -8(%rbp)
    4b01: 48 8b 45 f8                  	movq	-8(%rbp), %rax
    4b05: 48 83 e0 03                  	andq	$3, %rax
    4b09: 48 83 f8 02                  	cmpq	$2, %rax
    4b0d: 0f 94 c0                     	sete	%al
    4b10: 24 01                        	andb	$1, %al
    4b12: 0f b6 c0                     	movzbl	%al, %eax
    4b15: 44 8a 5d f7                  	movb	-9(%rbp), %r11b
    4b19: 41 82                        	<unknown>
    4b1b: e3 f0                        	jrcxz	0x4b0d <_fix_convert_to_double+0x2d>
    4b1d: 41 88 c3                     	movb	%al, %r11b
    4b20: 49 f7 d3                     	notq	%r11
    4b23: 44 88 5d f7                  	movb	%r11b, -9(%rbp)
    4b27: 88 45 f7                     	movb	%al, -9(%rbp)
    4b2a: 48 8b 45 f8                  	movq	-8(%rbp), %rax
    4b2e: 48 83 e0 03                  	andq	$3, %rax
    4b32: 48 83 f8 03                  	cmpq	$3, %rax
    4b36: 0f 94 c0                     	sete	%al
    4b39: 24 01                        	andb	$1, %al
    4b3b: 0f b6 c0                     	movzbl	%al, %eax
    4b3e: 44 8a 5d f6                  	movb	-10(%rbp), %r11b
    4b42: 41 82                        	<unknown>
    4b44: e3 f0                        	jrcxz	0x4b36 <_fix_convert_to_double+0x56>
    4b46: 41 88 c3                     	movb	%al, %r11b
    4b49: 49 f7 d3                     	notq	%r11
    4b4c: 44 88 5d f6                  	movb	%r11b, -10(%rbp)
    4b50: 88 45 f6                     	movb	%al, -10(%rbp)
    4b53: 48 8b 45 f8                  	movq	-8(%rbp), %rax
    4b57: 48 83 e0 03                  	andq	$3, %rax
    4b5b: 48 83 f8 01                  	cmpq	$1, %rax
    4b5f: 0f 94 c0                     	sete	%al
    4b62: 24 01                        	andb	$1, %al
    4b64: 0f b6 c0                     	movzbl	%al, %eax
    4b67: 44 8a 5d f5                  	movb	-11(%rbp), %r11b
    4b6b: 41 82                        	<unknown>
    4b6d: e3 f0                        	jrcxz	0x4b5f <_fix_convert_to_double+0x7f>
    4b6f: 41 88 c3                     	movb	%al, %r11b
    4b72: 49 f7 d3                     	notq	%r11
    4b75: 44 88 5d f5                  	movb	%r11b, -11(%rbp)
    4b79: 88 45 f5                     	movb	%al, -11(%rbp)
    4b7c: 0f b6 45 f7                  	movzbl	-9(%rbp), %eax
    4b80: 0f b6 4d f6                  	movzbl	-10(%rbp), %ecx
    4b84: 09 c8                        	orl	%ecx, %eax
    4b86: 0f b6 4d f5                  	movzbl	-11(%rbp), %ecx
    4b8a: 09 c8                        	orl	%ecx, %eax
    4b8c: 44 8a 5d f4                  	movb	-12(%rbp), %r11b
    4b90: 41 82                        	<unknown>
    4b92: e3 f0                        	jrcxz	0x4b84 <_fix_convert_to_double+0xa4>
    4b94: 41 88 c3                     	movb	%al, %r11b
    4b97: 49 f7 d3                     	notq	%r11
    4b9a: 44 88 5d f4                  	movb	%r11b, -12(%rbp)
    4b9e: 88 45 f4                     	movb	%al, -12(%rbp)
    4ba1: 48 b8 00 00 00 00 00 00 00 80	movabsq	$-9223372036854775808, %rax ## imm = 0x8000000000000000
    4bab: 48 23 45 f8                  	andq	-8(%rbp), %rax
    4baf: 48 b9 00 00 00 00 00 00 00 80	movabsq	$-9223372036854775808, %rcx ## imm = 0x8000000000000000
    4bb9: 48 39 c8                     	cmpq	%rcx, %rax
    4bbc: 0f 94 c0                     	sete	%al
    4bbf: 24 01                        	andb	$1, %al
    4bc1: 0f b6 c0                     	movzbl	%al, %eax
    4bc4: 48 98                        	cltq
    4bc6: 4c 8b 5d e8                  	movq	-24(%rbp), %r11
    4bca: 41 83 e3 00                  	andl	$0, %r11d
    4bce: 41 89 c3                     	movl	%eax, %r11d
    4bd1: 49 f7 d3                     	notq	%r11
    4bd4: 4c 89 5d e8                  	movq	%r11, -24(%rbp)
    4bd8: 48 89 45 e8                  	movq	%rax, -24(%rbp)
    4bdc: 48 8b 7d f8                  	movq	-8(%rbp), %rdi
    4be0: e8 00 00 00 00               	callq	0x4be5 <_fix_convert_to_double+0x105>
    4be5: 4c 8b 5d f8                  	movq	-8(%rbp), %r11
    4be9: 41 83 e3 00                  	andl	$0, %r11d
    4bed: 41 89 c3                     	movl	%eax, %r11d
    4bf0: 49 f7 d3                     	notq	%r11
    4bf3: 4c 89 5d f8                  	movq	%r11, -8(%rbp)
    4bf7: 48 89 45 f8                  	movq	%rax, -8(%rbp)
    4bfb: 48 8b 7d f8                  	movq	-8(%rbp), %rdi
    4bff: e8 00 00 00 00               	callq	0x4c04 <_fix_convert_to_double+0x124>
    4c04: 0f b6 c0                     	movzbl	%al, %eax
    4c07: 89 45 e4                     	movl	%eax, -28(%rbp)
    4c0a: b8 34 00 00 00               	movl	$52, %eax
    4c0f: 2b 45 e4                     	subl	-28(%rbp), %eax
    4c12: 89 45 e0                     	movl	%eax, -32(%rbp)
    4c15: 48 c7 45 d0 01 00 00 00      	movq	$1, -48(%rbp)
    4c1d: 83 7d e0 00                  	cmpl	$0, -32(%rbp)
    4c21: 0f 9d c0                     	setge	%al
    4c24: 34 ff                        	xorb	$-1, %al
    4c26: 34 ff                        	xorb	$-1, %al
    4c28: 24 01                        	andb	$1, %al
    4c2a: 0f b6 c0                     	movzbl	%al, %eax
    4c2d: 48 98                        	cltq
    4c2f: 48 33 45 d0                  	xorq	-48(%rbp), %rax
    4c33: 48 2b 45 d0                  	subq	-48(%rbp), %rax
    4c37: 4c 8b 5d c8                  	movq	-56(%rbp), %r11
    4c3b: 41 83 e3 00                  	andl	$0, %r11d
    4c3f: 41 89 c3                     	movl	%eax, %r11d
    4c42: 49 f7 d3                     	notq	%r11
    4c45: 4c 89 5d c8                  	movq	%r11, -56(%rbp)
    4c49: 48 89 45 c8                  	movq	%rax, -56(%rbp)
    4c4d: 48 8b 45 c8                  	movq	-56(%rbp), %rax
    4c51: 48 8b 55 f8                  	movq	-8(%rbp), %rdx
    4c55: 8b 4d e0                     	movl	-32(%rbp), %ecx
    4c58: 48 d3 e2                     	shlq	%cl, %rdx
    4c5b: 48 89 d1                     	movq	%rdx, %rcx
    4c5e: 48 21 c8                     	andq	%rcx, %rax
    4c61: 48 c7 45 c0 01 00 00 00      	movq	$1, -64(%rbp)
    4c69: 83 7d e0 00                  	cmpl	$0, -32(%rbp)
    4c6d: 0f 9c c1                     	setl	%cl
    4c70: 80 f1 ff                     	xorb	$-1, %cl
    4c73: 80 f1 ff                     	xorb	$-1, %cl
    4c76: 80 e1 01                     	andb	$1, %cl
    4c79: 0f b6 c9                     	movzbl	%cl, %ecx
    4c7c: 48 63 c9                     	movslq	%ecx, %rcx
    4c7f: 48 33 4d c0                  	xorq	-64(%rbp), %rcx
    4c83: 48 2b 4d c0                  	subq	-64(%rbp), %rcx
    4c87: 4c 8b 5d b8                  	movq	-72(%rbp), %r11
    4c8b: 41 83 e3 00                  	andl	$0, %r11d
    4c8f: 41 89 cb                     	movl	%ecx, %r11d
    4c92: 49 f7 d3                     	notq	%r11
    4c95: 4c 89 5d b8                  	movq	%r11, -72(%rbp)
    4c99: 48 89 4d b8                  	movq	%rcx, -72(%rbp)
    4c9d: 48 8b 4d b8                  	movq	-72(%rbp), %rcx
    4ca1: 4c 8b 9d 28 ff ff ff         	movq	-216(%rbp), %r11
    4ca8: 41 83 e3 00                  	andl	$0, %r11d
    4cac: 41 89 cb                     	movl	%ecx, %r11d
    4caf: 49 f7 d3                     	notq	%r11
    4cb2: 4c 89 9d 28 ff ff ff         	movq	%r11, -216(%rbp)
    4cb9: 48 89 8d 28 ff ff ff         	movq	%rcx, -216(%rbp)
    4cc0: 48 8b 55 f8                  	movq	-8(%rbp), %rdx
    4cc4: 31 c9                        	xorl	%ecx, %ecx
    4cc6: 2b 4d e0                     	subl	-32(%rbp), %ecx
    4cc9: 89 c9                        	movl	%ecx, %ecx
    4ccb: 48 d3 ea                     	shrq	%cl, %rdx
    4cce: 48 8b 8d 28 ff ff ff         	movq	-216(%rbp), %rcx
    4cd5: 48 21 d1                     	andq	%rdx, %rcx
    4cd8: 48 09 c8                     	orq	%rcx, %rax
    4cdb: 48 b9 ff ff ff ff ff ff 0f 00	movabsq	$4503599627370495, %rcx ## imm = 0xFFFFFFFFFFFFF
    4ce5: 48 21 c8                     	andq	%rcx, %rax
    4ce8: 4c 8b 5d d8                  	movq	-40(%rbp), %r11
    4cec: 41 83 e3 00                  	andl	$0, %r11d
    4cf0: 41 89 c3                     	movl	%eax, %r11d
    4cf3: 49 f7 d3                     	notq	%r11
    4cf6: 4c 89 5d d8                  	movq	%r11, -40(%rbp)
    4cfa: 48 89 45 d8                  	movq	%rax, -40(%rbp)
    4cfe: 48 c7 45 a8 01 00 00 00      	movq	$1, -88(%rbp)
    4d06: 48 83 7d f8 00               	cmpq	$0, -8(%rbp)
    4d0b: 0f 95 c0                     	setne	%al
    4d0e: 34 ff                        	xorb	$-1, %al
    4d10: 34 ff                        	xorb	$-1, %al
    4d12: 24 01                        	andb	$1, %al
    4d14: 0f b6 c0                     	movzbl	%al, %eax
    4d17: 48 98                        	cltq
    4d19: 48 33 45 a8                  	xorq	-88(%rbp), %rax
    4d1d: 48 2b 45 a8                  	subq	-88(%rbp), %rax
    4d21: 4c 8b 5d a0                  	movq	-96(%rbp), %r11
    4d25: 41 83 e3 00                  	andl	$0, %r11d
    4d29: 41 89 c3                     	movl	%eax, %r11d
    4d2c: 49 f7 d3                     	notq	%r11
    4d2f: 4c 89 5d a0                  	movq	%r11, -96(%rbp)
    4d33: 48 89 45 a0                  	movq	%rax, -96(%rbp)
    4d37: 48 8b 45 a0                  	movq	-96(%rbp), %rax
    4d3b: 8b 4d e4                     	movl	-28(%rbp), %ecx
    4d3e: 83 e9 3f                     	subl	$63, %ecx
    4d41: 81 c1 ff 03 00 00            	addl	$1023, %ecx             ## imm = 0x3FF
    4d47: 89 c9                        	movl	%ecx, %ecx
    4d49: 48 21 c8                     	andq	%rcx, %rax
    4d4c: 4c 8b 5d b0                  	movq	-80(%rbp), %r11
    4d50: 41 83 e3 00                  	andl	$0, %r11d
    4d54: 41 89 c3                     	movl	%eax, %r11d
    4d57: 49 f7 d3                     	notq	%r11
    4d5a: 4c 89 5d b0                  	movq	%r11, -80(%rbp)
    4d5e: 48 89 45 b0                  	movq	%rax, -80(%rbp)
    4d62: 48 c7 45 98 01 00 00 00      	movq	$1, -104(%rbp)
    4d6a: 80 7d f5 00                  	cmpb	$0, -11(%rbp)
    4d6e: 0f 95 c0                     	setne	%al
    4d71: 34 ff                        	xorb	$-1, %al
    4d73: 34 ff                        	xorb	$-1, %al
    4d75: 24 01                        	andb	$1, %al
    4d77: 0f b6 c0                     	movzbl	%al, %eax
    4d7a: 48 98                        	cltq
    4d7c: 48 33 45 98                  	xorq	-104(%rbp), %rax
    4d80: 48 2b 45 98                  	subq	-104(%rbp), %rax
    4d84: 4c 8b 5d 90                  	movq	-112(%rbp), %r11
    4d88: 41 83 e3 00                  	andl	$0, %r11d
    4d8c: 41 89 c3                     	movl	%eax, %r11d
    4d8f: 49 f7 d3                     	notq	%r11
    4d92: 4c 89 5d 90                  	movq	%r11, -112(%rbp)
    4d96: 48 89 45 90                  	movq	%rax, -112(%rbp)
    4d9a: 48 8b 45 90                  	movq	-112(%rbp), %rax
    4d9e: 48 83 e0 01                  	andq	$1, %rax
    4da2: 48 c7 45 88 01 00 00 00      	movq	$1, -120(%rbp)
    4daa: 80 7d f4 00                  	cmpb	$0, -12(%rbp)
    4dae: 0f 95 c1                     	setne	%cl
    4db1: 80 f1 ff                     	xorb	$-1, %cl
    4db4: 80 f1 ff                     	xorb	$-1, %cl
    4db7: 80 f1 ff                     	xorb	$-1, %cl
    4dba: 80 e1 01                     	andb	$1, %cl
    4dbd: 0f b6 c9                     	movzbl	%cl, %ecx
    4dc0: 48 63 c9                     	movslq	%ecx, %rcx
    4dc3: 48 33 4d 88                  	xorq	-120(%rbp), %rcx
    4dc7: 48 2b 4d 88                  	subq	-120(%rbp), %rcx
    4dcb: 4c 8b 5d 80                  	movq	-128(%rbp), %r11
    4dcf: 41 83 e3 00                  	andl	$0, %r11d
    4dd3: 41 89 cb                     	movl	%ecx, %r11d
    4dd6: 49 f7 d3                     	notq	%r11
    4dd9: 4c 89 5d 80                  	movq	%r11, -128(%rbp)
    4ddd: 48 89 4d 80                  	movq	%rcx, -128(%rbp)
    4de1: 48 8b 4d 80                  	movq	-128(%rbp), %rcx
    4de5: 48 23 4d d8                  	andq	-40(%rbp), %rcx
    4de9: 48 09 c8                     	orq	%rcx, %rax
    4dec: 4c 8b 5d d8                  	movq	-40(%rbp), %r11
    4df0: 41 83 e3 00                  	andl	$0, %r11d
    4df4: 41 89 c3                     	movl	%eax, %r11d
    4df7: 49 f7 d3                     	notq	%r11
    4dfa: 4c 89 5d d8                  	movq	%r11, -40(%rbp)
    4dfe: 48 89 45 d8                  	movq	%rax, -40(%rbp)
    4e02: 48 c7 85 78 ff ff ff 01 00 00 00     	movq	$1, -136(%rbp)
    4e0d: 80 7d f6 00                  	cmpb	$0, -10(%rbp)
    4e11: 0f 95 c0                     	setne	%al
    4e14: 34 ff                        	xorb	$-1, %al
    4e16: 34 ff                        	xorb	$-1, %al
    4e18: 24 01                        	andb	$1, %al
    4e1a: 0f b6 c0                     	movzbl	%al, %eax
    4e1d: 48 98                        	cltq
    4e1f: 48 33 85 78 ff ff ff         	xorq	-136(%rbp), %rax
    4e26: 48 2b 85 78 ff ff ff         	subq	-136(%rbp), %rax
    4e2d: 4c 8b 9d 70 ff ff ff         	movq	-144(%rbp), %r11
    4e34: 41 83 e3 00                  	andl	$0, %r11d
    4e38: 41 89 c3                     	movl	%eax, %r11d
    4e3b: 49 f7 d3                     	notq	%r11
    4e3e: 4c 89 9d 70 ff ff ff         	movq	%r11, -144(%rbp)
    4e45: 48 89 85 70 ff ff ff         	movq	%rax, -144(%rbp)
    4e4c: 48 8b 85 70 ff ff ff         	movq	-144(%rbp), %rax
    4e53: 48 83 e0 01                  	andq	$1, %rax
    4e57: 48 c7 85 68 ff ff ff 01 00 00 00     	movq	$1, -152(%rbp)
    4e62: 80 7d f4 00                  	cmpb	$0, -12(%rbp)
    4e66: 0f 95 c1                     	setne	%cl
    4e69: 80 f1 ff                     	xorb	$-1, %cl
    4e6c: 80 f1 ff                     	xorb	$-1, %cl
    4e6f: 80 f1 ff                     	xorb	$-1, %cl
    4e72: 80 e1 01                     	andb	$1, %cl
    4e75: 0f b6 c9                     	movzbl	%cl, %ecx
    4e78: 48 63 c9                     	movslq	%ecx, %rcx
    4e7b: 48 33 8d 68 ff ff ff         	xorq	-152(%rbp), %rcx
    4e82: 48 2b 8d 68 ff ff ff         	subq	-152(%rbp), %rcx
    4e89: 4c 8b 9d 60 ff ff ff         	movq	-160(%rbp), %r11
    4e90: 41 83 e3 00                  	andl	$0, %r11d
    4e94: 41 89 cb                     	movl	%ecx, %r11d
    4e97: 49 f7 d3                     	notq	%r11
    4e9a: 4c 89 9d 60 ff ff ff         	movq	%r11, -160(%rbp)
    4ea1: 48 89 8d 60 ff ff ff         	movq	%rcx, -160(%rbp)
    4ea8: 48 8b 8d 60 ff ff ff         	movq	-160(%rbp), %rcx
    4eaf: 48 23 4d e8                  	andq	-24(%rbp), %rcx
    4eb3: 48 09 c8                     	orq	%rcx, %rax
    4eb6: 4c 8b 5d e8                  	movq	-24(%rbp), %r11
    4eba: 41 83 e3 00                  	andl	$0, %r11d
    4ebe: 41 89 c3                     	movl	%eax, %r11d
    4ec1: 49 f7 d3                     	notq	%r11
    4ec4: 4c 89 5d e8                  	movq	%r11, -24(%rbp)
    4ec8: 48 89 45 e8                  	movq	%rax, -24(%rbp)
    4ecc: 48 c7 85 58 ff ff ff 01 00 00 00     	movq	$1, -168(%rbp)
    4ed7: 80 7d f4 00                  	cmpb	$0, -12(%rbp)
    4edb: 0f 95 c0                     	setne	%al
    4ede: 34 ff                        	xorb	$-1, %al
    4ee0: 34 ff                        	xorb	$-1, %al
    4ee2: 24 01                        	andb	$1, %al
    4ee4: 0f b6 c0                     	movzbl	%al, %eax
    4ee7: 48 98                        	cltq
    4ee9: 48 33 85 58 ff ff ff         	xorq	-168(%rbp), %rax
    4ef0: 48 2b 85 58 ff ff ff         	subq	-168(%rbp), %rax
    4ef7: 4c 8b 9d 50 ff ff ff         	movq	-176(%rbp), %r11
    4efe: 41 83 e3 00                  	andl	$0, %r11d
    4f02: 41 89 c3                     	movl	%eax, %r11d
    4f05: 49 f7 d3                     	notq	%r11
    4f08: 4c 89 9d 50 ff ff ff         	movq	%r11, -176(%rbp)
    4f0f: 48 89 85 50 ff ff ff         	movq	%rax, -176(%rbp)
    4f16: 48 8b 85 50 ff ff ff         	movq	-176(%rbp), %rax
    4f1d: 48 25 ff 07 00 00            	andq	$2047, %rax             ## imm = 0x7FF
    4f23: 48 c7 85 48 ff ff ff 01 00 00 00     	movq	$1, -184(%rbp)
    4f2e: 80 7d f4 00                  	cmpb	$0, -12(%rbp)
    4f32: 0f 95 c1                     	setne	%cl
    4f35: 80 f1 ff                     	xorb	$-1, %cl
    4f38: 80 f1 ff                     	xorb	$-1, %cl
    4f3b: 80 f1 ff                     	xorb	$-1, %cl
    4f3e: 80 e1 01                     	andb	$1, %cl
    4f41: 0f b6 c9                     	movzbl	%cl, %ecx
    4f44: 48 63 c9                     	movslq	%ecx, %rcx
    4f47: 48 33 8d 48 ff ff ff         	xorq	-184(%rbp), %rcx
    4f4e: 48 2b 8d 48 ff ff ff         	subq	-184(%rbp), %rcx
    4f55: 4c 8b 9d 40 ff ff ff         	movq	-192(%rbp), %r11
    4f5c: 41 83 e3 00                  	andl	$0, %r11d
    4f60: 41 89 cb                     	movl	%ecx, %r11d
    4f63: 49 f7 d3                     	notq	%r11
    4f66: 4c 89 9d 40 ff ff ff         	movq	%r11, -192(%rbp)
    4f6d: 48 89 8d 40 ff ff ff         	movq	%rcx, -192(%rbp)
    4f74: 48 8b 8d 40 ff ff ff         	movq	-192(%rbp), %rcx
    4f7b: 48 23 4d b0                  	andq	-80(%rbp), %rcx
    4f7f: 48 09 c8                     	orq	%rcx, %rax
    4f82: 4c 8b 5d b0                  	movq	-80(%rbp), %r11
    4f86: 41 83 e3 00                  	andl	$0, %r11d
    4f8a: 41 89 c3                     	movl	%eax, %r11d
    4f8d: 49 f7 d3                     	notq	%r11
    4f90: 4c 89 5d b0                  	movq	%r11, -80(%rbp)
    4f94: 48 89 45 b0                  	movq	%rax, -80(%rbp)
    4f98: 48 8b 45 e8                  	movq	-24(%rbp), %rax
    4f9c: 48 c1 e0 3f                  	shlq	$63, %rax
    4fa0: 48 8b 4d b0                  	movq	-80(%rbp), %rcx
    4fa4: 48 c1 e1 34                  	shlq	$52, %rcx
    4fa8: 48 09 c8                     	orq	%rcx, %rax
    4fab: 48 0b 45 d8                  	orq	-40(%rbp), %rax
    4faf: 4c 8b 9d 38 ff ff ff         	movq	-200(%rbp), %r11
    4fb6: 41 83 e3 00                  	andl	$0, %r11d
    4fba: 41 89 c3                     	movl	%eax, %r11d
    4fbd: 49 f7 d3                     	notq	%r11
    4fc0: 4c 89 9d 38 ff ff ff         	movq	%r11, -200(%rbp)
    4fc7: 48 89 85 38 ff ff ff         	movq	%rax, -200(%rbp)
    4fce: f2 0f 10 85 38 ff ff ff      	movsd	-200(%rbp), %xmm0       ## xmm0 = mem[0],zero
    4fd6: f2 0f 11 85 30 ff ff ff      	movsd	%xmm0, -208(%rbp)
    4fde: f2 0f 10 85 30 ff ff ff      	movsd	-208(%rbp), %xmm0       ## xmm0 = mem[0],zero
    4fe6: 48 81 c4 e0 00 00 00         	addq	$224, %rsp
    4fed: 5d                           	popq	%rbp
    4fee: c3                           	retq
    4fef: 90                           	nop

0000000000004ff0 <_uint64_log2>:
    4ff0: 55                           	pushq	%rbp
    4ff1: 48 89 e5                     	movq	%rsp, %rbp
    4ff4: 48 89 7d f8                  	movq	%rdi, -8(%rbp)
    4ff8: 48 8b 45 f8                  	movq	-8(%rbp), %rax
    4ffc: 48 89 45 f0                  	movq	%rax, -16(%rbp)
    5000: b8 ff ff ff ff               	movl	$4294967295, %eax       ## imm = 0xFFFFFFFF
    5005: 48 39 45 f0                  	cmpq	%rax, -16(%rbp)
    5009: 0f 97 c0                     	seta	%al
    500c: 24 01                        	andb	$1, %al
    500e: 0f b6 c0                     	movzbl	%al, %eax
    5011: c1 e0 05                     	shll	$5, %eax
    5014: 48 98                        	cltq
    5016: 48 89 45 e8                  	movq	%rax, -24(%rbp)
    501a: 48 8b 4d e8                  	movq	-24(%rbp), %rcx
    501e: 48 8b 45 f0                  	movq	-16(%rbp), %rax
    5022: 48 d3 e8                     	shrq	%cl, %rax
    5025: 48 89 45 f0                  	movq	%rax, -16(%rbp)
    5029: 48 81 7d f0 ff ff 00 00      	cmpq	$65535, -16(%rbp)       ## imm = 0xFFFF
    5031: 0f 97 c0                     	seta	%al
    5034: 24 01                        	andb	$1, %al
    5036: 0f b6 c0                     	movzbl	%al, %eax
    5039: c1 e0 04                     	shll	$4, %eax
    503c: 48 98                        	cltq
    503e: 48 89 45 e0                  	movq	%rax, -32(%rbp)
    5042: 48 8b 4d e0                  	movq	-32(%rbp), %rcx
    5046: 48 8b 45 f0                  	movq	-16(%rbp), %rax
    504a: 48 d3 e8                     	shrq	%cl, %rax
    504d: 48 89 45 f0                  	movq	%rax, -16(%rbp)
    5051: 48 8b 45 e0                  	movq	-32(%rbp), %rax
    5055: 48 0b 45 e8                  	orq	-24(%rbp), %rax
    5059: 48 89 45 e8                  	movq	%rax, -24(%rbp)
    505d: 48 81 7d f0 ff 00 00 00      	cmpq	$255, -16(%rbp)
    5065: 0f 97 c0                     	seta	%al
    5068: 24 01                        	andb	$1, %al
    506a: 0f b6 c0                     	movzbl	%al, %eax
    506d: c1 e0 03                     	shll	$3, %eax
    5070: 48 98                        	cltq
    5072: 48 89 45 e0                  	movq	%rax, -32(%rbp)
    5076: 48 8b 4d e0                  	movq	-32(%rbp), %rcx
    507a: 48 8b 45 f0                  	movq	-16(%rbp), %rax
    507e: 48 d3 e8                     	shrq	%cl, %rax
    5081: 48 89 45 f0                  	movq	%rax, -16(%rbp)
    5085: 48 8b 45 e0                  	movq	-32(%rbp), %rax
    5089: 48 0b 45 e8                  	orq	-24(%rbp), %rax
    508d: 48 89 45 e8                  	movq	%rax, -24(%rbp)
    5091: 48 83 7d f0 0f               	cmpq	$15, -16(%rbp)
    5096: 0f 97 c0                     	seta	%al
    5099: 24 01                        	andb	$1, %al
    509b: 0f b6 c0                     	movzbl	%al, %eax
    509e: c1 e0 02                     	shll	$2, %eax
    50a1: 48 98                        	cltq
    50a3: 48 89 45 e0                  	movq	%rax, -32(%rbp)
    50a7: 48 8b 4d e0                  	movq	-32(%rbp), %rcx
    50ab: 48 8b 45 f0                  	movq	-16(%rbp), %rax
    50af: 48 d3 e8                     	shrq	%cl, %rax
    50b2: 48 89 45 f0                  	movq	%rax, -16(%rbp)
    50b6: 48 8b 45 e0                  	movq	-32(%rbp), %rax
    50ba: 48 0b 45 e8                  	orq	-24(%rbp), %rax
    50be: 48 89 45 e8                  	movq	%rax, -24(%rbp)
    50c2: 48 83 7d f0 03               	cmpq	$3, -16(%rbp)
    50c7: 0f 97 c0                     	seta	%al
    50ca: 24 01                        	andb	$1, %al
    50cc: 0f b6 c0                     	movzbl	%al, %eax
    50cf: c1 e0 01                     	shll	$1, %eax
    50d2: 48 98                        	cltq
    50d4: 48 89 45 e0                  	movq	%rax, -32(%rbp)
    50d8: 48 8b 4d e0                  	movq	-32(%rbp), %rcx
    50dc: 48 8b 45 f0                  	movq	-16(%rbp), %rax
    50e0: 48 d3 e8                     	shrq	%cl, %rax
    50e3: 48 89 45 f0                  	movq	%rax, -16(%rbp)
    50e7: 48 8b 45 e0                  	movq	-32(%rbp), %rax
    50eb: 48 0b 45 e8                  	orq	-24(%rbp), %rax
    50ef: 48 89 45 e8                  	movq	%rax, -24(%rbp)
    50f3: 48 8b 45 f0                  	movq	-16(%rbp), %rax
    50f7: 48 c1 e8 01                  	shrq	$1, %rax
    50fb: 48 0b 45 e8                  	orq	-24(%rbp), %rax
    50ff: 48 89 45 e8                  	movq	%rax, -24(%rbp)
    5103: 48 8b 45 e8                  	movq	-24(%rbp), %rax
    5107: 0f b6 c0                     	movzbl	%al, %eax
    510a: 5d                           	popq	%rbp
    510b: c3                           	retq
    510c: 0f 1f 40 00                  	nopl	(%rax)

0000000000005110 <_fix_convert_from_int64>:
    5110: 55                           	pushq	%rbp
    5111: 48 89 e5                     	movq	%rsp, %rbp
    5114: 48 89 7d f8                  	movq	%rdi, -8(%rbp)
    5118: 48 8b 45 f8                  	movq	-8(%rbp), %rax
    511c: 48 89 45 f0                  	movq	%rax, -16(%rbp)
    5120: 48 83 7d f0 01               	cmpq	$1, -16(%rbp)
    5125: 0f 9d c0                     	setge	%al
    5128: 24 01                        	andb	$1, %al
    512a: 0f b6 c0                     	movzbl	%al, %eax
    512d: 88 45 ef                     	movb	%al, -17(%rbp)
    5130: 48 83 7d f0 ff               	cmpq	$-1, -16(%rbp)
    5135: 0f 9c c0                     	setl	%al
    5138: 24 01                        	andb	$1, %al
    513a: 0f b6 c0                     	movzbl	%al, %eax
    513d: 88 45 ee                     	movb	%al, -18(%rbp)
    5140: 48 8b 45 f8                  	movq	-8(%rbp), %rax
    5144: 48 c1 e0 3f                  	shlq	$63, %rax
    5148: 48 89 45 e0                  	movq	%rax, -32(%rbp)
    514c: 0f b6 45 ef                  	movzbl	-17(%rbp), %eax
    5150: 0f b6 4d ef                  	movzbl	-17(%rbp), %ecx
    5154: c1 e1 01                     	shll	$1, %ecx
    5157: 09 c8                        	orl	%ecx, %eax
    5159: 48 98                        	cltq
    515b: 48 83 e0 02                  	andq	$2, %rax
    515f: 0f b6 4d ee                  	movzbl	-18(%rbp), %ecx
    5163: 0f b6 55 ee                  	movzbl	-18(%rbp), %edx
    5167: c1 e2 01                     	shll	$1, %edx
    516a: 09 d1                        	orl	%edx, %ecx
    516c: 48 63 c9                     	movslq	%ecx, %rcx
    516f: 48 83 e1 03                  	andq	$3, %rcx
    5173: 48 09 c8                     	orq	%rcx, %rax
    5176: 48 c7 45 d8 01 00 00 00      	movq	$1, -40(%rbp)
    517e: 0f b6 4d ef                  	movzbl	-17(%rbp), %ecx
    5182: 0f b6 55 ee                  	movzbl	-18(%rbp), %edx
    5186: 09 d1                        	orl	%edx, %ecx
    5188: 83 f9 00                     	cmpl	$0, %ecx
    518b: 0f 95 c1                     	setne	%cl
    518e: 80 f1 ff                     	xorb	$-1, %cl
    5191: 80 f1 ff                     	xorb	$-1, %cl
    5194: 80 f1 ff                     	xorb	$-1, %cl
    5197: 80 e1 01                     	andb	$1, %cl
    519a: 0f b6 c9                     	movzbl	%cl, %ecx
    519d: 48 63 c9                     	movslq	%ecx, %rcx
    51a0: 48 33 4d d8                  	xorq	-40(%rbp), %rcx
    51a4: 48 2b 4d d8                  	subq	-40(%rbp), %rcx
    51a8: 48 89 4d d0                  	movq	%rcx, -48(%rbp)
    51ac: 48 8b 4d d0                  	movq	-48(%rbp), %rcx
    51b0: 48 23 4d e0                  	andq	-32(%rbp), %rcx
    51b4: 48 09 c8                     	orq	%rcx, %rax
    51b7: 5d                           	popq	%rbp
    51b8: c3                           	retq
    51b9: 0f 1f 80 00 00 00 00         	nopl	(%rax)

00000000000051c0 <_fix_convert_to_int64>:
    51c0: 55                           	pushq	%rbp
    51c1: 48 89 e5                     	movq	%rsp, %rbp
    51c4: 4c 8b 5d f8                  	movq	-8(%rbp), %r11
    51c8: 41 83 e3 00                  	andl	$0, %r11d
    51cc: 41 89 fb                     	movl	%edi, %r11d
    51cf: 49 f7 d3                     	notq	%r11
    51d2: 4c 89 5d f8                  	movq	%r11, -8(%rbp)
    51d6: 48 89 7d f8                  	movq	%rdi, -8(%rbp)
    51da: 48 8b 45 f8                  	movq	-8(%rbp), %rax
    51de: 48 83 e0 03                  	andq	$3, %rax
    51e2: 48 83 f8 02                  	cmpq	$2, %rax
    51e6: 0f 94 c0                     	sete	%al
    51e9: 24 01                        	andb	$1, %al
    51eb: 0f b6 c0                     	movzbl	%al, %eax
    51ee: 44 8a 5d f7                  	movb	-9(%rbp), %r11b
    51f2: 41 82                        	<unknown>
    51f4: e3 f0                        	jrcxz	0x51e6 <_fix_convert_to_int64+0x26>
    51f6: 41 88 c3                     	movb	%al, %r11b
    51f9: 49 f7 d3                     	notq	%r11
    51fc: 44 88 5d f7                  	movb	%r11b, -9(%rbp)
    5200: 88 45 f7                     	movb	%al, -9(%rbp)
    5203: 48 8b 45 f8                  	movq	-8(%rbp), %rax
    5207: 48 83 e0 03                  	andq	$3, %rax
    520b: 48 83 f8 03                  	cmpq	$3, %rax
    520f: 0f 94 c0                     	sete	%al
    5212: 24 01                        	andb	$1, %al
    5214: 0f b6 c0                     	movzbl	%al, %eax
    5217: 44 8a 5d f6                  	movb	-10(%rbp), %r11b
    521b: 41 82                        	<unknown>
    521d: e3 f0                        	jrcxz	0x520f <_fix_convert_to_int64+0x4f>
    521f: 41 88 c3                     	movb	%al, %r11b
    5222: 49 f7 d3                     	notq	%r11
    5225: 44 88 5d f6                  	movb	%r11b, -10(%rbp)
    5229: 88 45 f6                     	movb	%al, -10(%rbp)
    522c: 48 8b 45 f8                  	movq	-8(%rbp), %rax
    5230: 48 83 e0 03                  	andq	$3, %rax
    5234: 48 83 f8 01                  	cmpq	$1, %rax
    5238: 0f 94 c0                     	sete	%al
    523b: 24 01                        	andb	$1, %al
    523d: 0f b6 c0                     	movzbl	%al, %eax
    5240: 44 8a 5d f5                  	movb	-11(%rbp), %r11b
    5244: 41 82                        	<unknown>
    5246: e3 f0                        	jrcxz	0x5238 <_fix_convert_to_int64+0x78>
    5248: 41 88 c3                     	movb	%al, %r11b
    524b: 49 f7 d3                     	notq	%r11
    524e: 44 88 5d f5                  	movb	%r11b, -11(%rbp)
    5252: 88 45 f5                     	movb	%al, -11(%rbp)
    5255: 0f b6 45 f7                  	movzbl	-9(%rbp), %eax
    5259: 0f b6 4d f6                  	movzbl	-10(%rbp), %ecx
    525d: 09 c8                        	orl	%ecx, %eax
    525f: 0f b6 4d f5                  	movzbl	-11(%rbp), %ecx
    5263: 09 c8                        	orl	%ecx, %eax
    5265: 44 8a 5d f4                  	movb	-12(%rbp), %r11b
    5269: 41 82                        	<unknown>
    526b: e3 f0                        	jrcxz	0x525d <_fix_convert_to_int64+0x9d>
    526d: 41 88 c3                     	movb	%al, %r11b
    5270: 49 f7 d3                     	notq	%r11
    5273: 44 88 5d f4                  	movb	%r11b, -12(%rbp)
    5277: 88 45 f4                     	movb	%al, -12(%rbp)
    527a: 48 c7 45 e0 01 00 00 00      	movq	$1, -32(%rbp)
    5282: 48 8b 45 f8                  	movq	-8(%rbp), %rax
    5286: 48 c1 e8 3f                  	shrq	$63, %rax
    528a: 48 33 45 e0                  	xorq	-32(%rbp), %rax
    528e: 48 2b 45 e0                  	subq	-32(%rbp), %rax
    5292: 4c 8b 5d d8                  	movq	-40(%rbp), %r11
    5296: 41 83 e3 00                  	andl	$0, %r11d
    529a: 41 89 c3                     	movl	%eax, %r11d
    529d: 49 f7 d3                     	notq	%r11
    52a0: 4c 89 5d d8                  	movq	%r11, -40(%rbp)
    52a4: 48 89 45 d8                  	movq	%rax, -40(%rbp)
    52a8: 48 8b 45 d8                  	movq	-40(%rbp), %rax
    52ac: 48 b9 00 00 00 00 00 00 00 40	movabsq	$4611686018427387904, %rcx ## imm = 0x4000000000000000
    52b6: 48 23 4d f8                  	andq	-8(%rbp), %rcx
    52ba: 48 83 f9 00                  	cmpq	$0, %rcx
    52be: 0f 95 c1                     	setne	%cl
    52c1: 80 f1 ff                     	xorb	$-1, %cl
    52c4: 80 f1 ff                     	xorb	$-1, %cl
    52c7: 80 e1 01                     	andb	$1, %cl
    52ca: 0f b6 c9                     	movzbl	%cl, %ecx
    52cd: 48 ba ff ff ff ff ff ff ff 3f	movabsq	$4611686018427387903, %rdx ## imm = 0x3FFFFFFFFFFFFFFF
    52d7: 48 23 55 f8                  	andq	-8(%rbp), %rdx
    52db: 48 83 fa 00                  	cmpq	$0, %rdx
    52df: 0f 95 c2                     	setne	%dl
    52e2: 80 f2 ff                     	xorb	$-1, %dl
    52e5: 80 f2 ff                     	xorb	$-1, %dl
    52e8: 80 e2 01                     	andb	$1, %dl
    52eb: 0f b6 d2                     	movzbl	%dl, %edx
    52ee: 21 d1                        	andl	%edx, %ecx
    52f0: 48 8b 55 f8                  	movq	-8(%rbp), %rdx
    52f4: 48 c1 ea 3d                  	shrq	$61, %rdx
    52f8: 48 83 e2 06                  	andq	$6, %rdx
    52fc: 48 83 fa 06                  	cmpq	$6, %rdx
    5300: 0f 94 c2                     	sete	%dl
    5303: 80 e2 01                     	andb	$1, %dl
    5306: 0f b6 d2                     	movzbl	%dl, %edx
    5309: 09 d1                        	orl	%edx, %ecx
    530b: 83 f9 00                     	cmpl	$0, %ecx
    530e: 0f 95 c1                     	setne	%cl
    5311: 80 f1 ff                     	xorb	$-1, %cl
    5314: 80 f1 ff                     	xorb	$-1, %cl
    5317: 80 e1 01                     	andb	$1, %cl
    531a: 0f b6 c9                     	movzbl	%cl, %ecx
    531d: 48 63 c9                     	movslq	%ecx, %rcx
    5320: 48 01 c8                     	addq	%rcx, %rax
    5323: 4c 8b 5d e8                  	movq	-24(%rbp), %r11
    5327: 41 83 e3 00                  	andl	$0, %r11d
    532b: 41 89 c3                     	movl	%eax, %r11d
    532e: 49 f7 d3                     	notq	%r11
    5331: 4c 89 5d e8                  	movq	%r11, -24(%rbp)
    5335: 48 89 45 e8                  	movq	%rax, -24(%rbp)
    5339: 48 c7 45 c8 01 00 00 00      	movq	$1, -56(%rbp)
    5341: 80 7d f7 00                  	cmpb	$0, -9(%rbp)
    5345: 0f 95 c0                     	setne	%al
    5348: 34 ff                        	xorb	$-1, %al
    534a: 34 ff                        	xorb	$-1, %al
    534c: 24 01                        	andb	$1, %al
    534e: 0f b6 c0                     	movzbl	%al, %eax
    5351: 48 98                        	cltq
    5353: 48 33 45 c8                  	xorq	-56(%rbp), %rax
    5357: 48 2b 45 c8                  	subq	-56(%rbp), %rax
    535b: 4c 8b 5d c0                  	movq	-64(%rbp), %r11
    535f: 41 83 e3 00                  	andl	$0, %r11d
    5363: 41 89 c3                     	movl	%eax, %r11d
    5366: 49 f7 d3                     	notq	%r11
    5369: 4c 89 5d c0                  	movq	%r11, -64(%rbp)
    536d: 48 89 45 c0                  	movq	%rax, -64(%rbp)
    5371: 48 b8 ff ff ff ff ff ff ff 7f	movabsq	$9223372036854775807, %rax ## imm = 0x7FFFFFFFFFFFFFFF
    537b: 48 23 45 c0                  	andq	-64(%rbp), %rax
    537f: 48 c7 45 b8 01 00 00 00      	movq	$1, -72(%rbp)
    5387: 80 7d f6 00                  	cmpb	$0, -10(%rbp)
    538b: 0f 95 c1                     	setne	%cl
    538e: 80 f1 ff                     	xorb	$-1, %cl
    5391: 80 f1 ff                     	xorb	$-1, %cl
    5394: 80 e1 01                     	andb	$1, %cl
    5397: 0f b6 c9                     	movzbl	%cl, %ecx
    539a: 48 63 c9                     	movslq	%ecx, %rcx
    539d: 48 33 4d b8                  	xorq	-72(%rbp), %rcx
    53a1: 48 2b 4d b8                  	subq	-72(%rbp), %rcx
    53a5: 4c 8b 5d b0                  	movq	-80(%rbp), %r11
    53a9: 41 83 e3 00                  	andl	$0, %r11d
    53ad: 41 89 cb                     	movl	%ecx, %r11d
    53b0: 49 f7 d3                     	notq	%r11
    53b3: 4c 89 5d b0                  	movq	%r11, -80(%rbp)
    53b7: 48 89 4d b0                  	movq	%rcx, -80(%rbp)
    53bb: 48 b9 00 00 00 00 00 00 00 80	movabsq	$-9223372036854775808, %rcx ## imm = 0x8000000000000000
    53c5: 48 23 4d b0                  	andq	-80(%rbp), %rcx
    53c9: 48 09 c8                     	orq	%rcx, %rax
    53cc: 48 c7 45 a8 01 00 00 00      	movq	$1, -88(%rbp)
    53d4: 80 7d f4 00                  	cmpb	$0, -12(%rbp)
    53d8: 0f 95 c1                     	setne	%cl
    53db: 80 f1 ff                     	xorb	$-1, %cl
    53de: 80 f1 ff                     	xorb	$-1, %cl
    53e1: 80 f1 ff                     	xorb	$-1, %cl
    53e4: 80 e1 01                     	andb	$1, %cl
    53e7: 0f b6 c9                     	movzbl	%cl, %ecx
    53ea: 48 63 c9                     	movslq	%ecx, %rcx
    53ed: 48 33 4d a8                  	xorq	-88(%rbp), %rcx
    53f1: 48 2b 4d a8                  	subq	-88(%rbp), %rcx
    53f5: 4c 8b 5d a0                  	movq	-96(%rbp), %r11
    53f9: 41 83 e3 00                  	andl	$0, %r11d
    53fd: 41 89 cb                     	movl	%ecx, %r11d
    5400: 49 f7 d3                     	notq	%r11
    5403: 4c 89 5d a0                  	movq	%r11, -96(%rbp)
    5407: 48 89 4d a0                  	movq	%rcx, -96(%rbp)
    540b: 48 8b 4d a0                  	movq	-96(%rbp), %rcx
    540f: 48 23 4d e8                  	andq	-24(%rbp), %rcx
    5413: 48 09 c8                     	orq	%rcx, %rax
    5416: 4c 8b 5d d0                  	movq	-48(%rbp), %r11
    541a: 41 83 e3 00                  	andl	$0, %r11d
    541e: 41 89 c3                     	movl	%eax, %r11d
    5421: 49 f7 d3                     	notq	%r11
    5424: 4c 89 5d d0                  	movq	%r11, -48(%rbp)
    5428: 48 89 45 d0                  	movq	%rax, -48(%rbp)
    542c: 48 8b 45 d0                  	movq	-48(%rbp), %rax
    5430: 5d                           	popq	%rbp
    5431: c3                           	retq
    5432: 66 2e 0f 1f 84 00 00 00 00 00	nopw	%cs:(%rax,%rax)
    543c: 0f 1f 40 00                  	nopl	(%rax)

0000000000005440 <_fix_round_up_int64>:
    5440: 55                           	pushq	%rbp
    5441: 48 89 e5                     	movq	%rsp, %rbp
    5444: 4c 8b 5d f8                  	movq	-8(%rbp), %r11
    5448: 41 83 e3 00                  	andl	$0, %r11d
    544c: 41 89 fb                     	movl	%edi, %r11d
    544f: 49 f7 d3                     	notq	%r11
    5452: 4c 89 5d f8                  	movq	%r11, -8(%rbp)
    5456: 48 89 7d f8                  	movq	%rdi, -8(%rbp)
    545a: 48 8b 45 f8                  	movq	-8(%rbp), %rax
    545e: 48 83 e0 03                  	andq	$3, %rax
    5462: 48 83 f8 02                  	cmpq	$2, %rax
    5466: 0f 94 c0                     	sete	%al
    5469: 24 01                        	andb	$1, %al
    546b: 0f b6 c0                     	movzbl	%al, %eax
    546e: 44 8a 5d f7                  	movb	-9(%rbp), %r11b
    5472: 41 82                        	<unknown>
    5474: e3 f0                        	jrcxz	0x5466 <_fix_round_up_int64+0x26>
    5476: 41 88 c3                     	movb	%al, %r11b
    5479: 49 f7 d3                     	notq	%r11
    547c: 44 88 5d f7                  	movb	%r11b, -9(%rbp)
    5480: 88 45 f7                     	movb	%al, -9(%rbp)
    5483: 48 8b 45 f8                  	movq	-8(%rbp), %rax
    5487: 48 83 e0 03                  	andq	$3, %rax
    548b: 48 83 f8 03                  	cmpq	$3, %rax
    548f: 0f 94 c0                     	sete	%al
    5492: 24 01                        	andb	$1, %al
    5494: 0f b6 c0                     	movzbl	%al, %eax
    5497: 44 8a 5d f6                  	movb	-10(%rbp), %r11b
    549b: 41 82                        	<unknown>
    549d: e3 f0                        	jrcxz	0x548f <_fix_round_up_int64+0x4f>
    549f: 41 88 c3                     	movb	%al, %r11b
    54a2: 49 f7 d3                     	notq	%r11
    54a5: 44 88 5d f6                  	movb	%r11b, -10(%rbp)
    54a9: 88 45 f6                     	movb	%al, -10(%rbp)
    54ac: 48 8b 45 f8                  	movq	-8(%rbp), %rax
    54b0: 48 83 e0 03                  	andq	$3, %rax
    54b4: 48 83 f8 01                  	cmpq	$1, %rax
    54b8: 0f 94 c0                     	sete	%al
    54bb: 24 01                        	andb	$1, %al
    54bd: 0f b6 c0                     	movzbl	%al, %eax
    54c0: 44 8a 5d f5                  	movb	-11(%rbp), %r11b
    54c4: 41 82                        	<unknown>
    54c6: e3 f0                        	jrcxz	0x54b8 <_fix_round_up_int64+0x78>
    54c8: 41 88 c3                     	movb	%al, %r11b
    54cb: 49 f7 d3                     	notq	%r11
    54ce: 44 88 5d f5                  	movb	%r11b, -11(%rbp)
    54d2: 88 45 f5                     	movb	%al, -11(%rbp)
    54d5: 0f b6 45 f7                  	movzbl	-9(%rbp), %eax
    54d9: 0f b6 4d f6                  	movzbl	-10(%rbp), %ecx
    54dd: 09 c8                        	orl	%ecx, %eax
    54df: 0f b6 4d f5                  	movzbl	-11(%rbp), %ecx
    54e3: 09 c8                        	orl	%ecx, %eax
    54e5: 44 8a 5d f4                  	movb	-12(%rbp), %r11b
    54e9: 41 82                        	<unknown>
    54eb: e3 f0                        	jrcxz	0x54dd <_fix_round_up_int64+0x9d>
    54ed: 41 88 c3                     	movb	%al, %r11b
    54f0: 49 f7 d3                     	notq	%r11
    54f3: 44 88 5d f4                  	movb	%r11b, -12(%rbp)
    54f7: 88 45 f4                     	movb	%al, -12(%rbp)
    54fa: 48 c7 45 e0 01 00 00 00      	movq	$1, -32(%rbp)
    5502: 48 8b 45 f8                  	movq	-8(%rbp), %rax
    5506: 48 c1 e8 3f                  	shrq	$63, %rax
    550a: 48 33 45 e0                  	xorq	-32(%rbp), %rax
    550e: 48 2b 45 e0                  	subq	-32(%rbp), %rax
    5512: 4c 8b 5d d8                  	movq	-40(%rbp), %r11
    5516: 41 83 e3 00                  	andl	$0, %r11d
    551a: 41 89 c3                     	movl	%eax, %r11d
    551d: 49 f7 d3                     	notq	%r11
    5520: 4c 89 5d d8                  	movq	%r11, -40(%rbp)
    5524: 48 89 45 d8                  	movq	%rax, -40(%rbp)
    5528: 48 8b 45 d8                  	movq	-40(%rbp), %rax
    552c: 48 8b 4d f8                  	movq	-8(%rbp), %rcx
    5530: 48 c1 e9 3e                  	shrq	$62, %rcx
    5534: 48 83 e1 01                  	andq	$1, %rcx
    5538: 48 01 c8                     	addq	%rcx, %rax
    553b: 4c 8b 5d e8                  	movq	-24(%rbp), %r11
    553f: 41 83 e3 00                  	andl	$0, %r11d
    5543: 41 89 c3                     	movl	%eax, %r11d
    5546: 49 f7 d3                     	notq	%r11
    5549: 4c 89 5d e8                  	movq	%r11, -24(%rbp)
    554d: 48 89 45 e8                  	movq	%rax, -24(%rbp)
    5551: 48 c7 45 c8 01 00 00 00      	movq	$1, -56(%rbp)
    5559: 80 7d f7 00                  	cmpb	$0, -9(%rbp)
    555d: 0f 95 c0                     	setne	%al
    5560: 34 ff                        	xorb	$-1, %al
    5562: 34 ff                        	xorb	$-1, %al
    5564: 24 01                        	andb	$1, %al
    5566: 0f b6 c0                     	movzbl	%al, %eax
    5569: 48 98                        	cltq
    556b: 48 33 45 c8                  	xorq	-56(%rbp), %rax
    556f: 48 2b 45 c8                  	subq	-56(%rbp), %rax
    5573: 4c 8b 5d c0                  	movq	-64(%rbp), %r11
    5577: 41 83 e3 00                  	andl	$0, %r11d
    557b: 41 89 c3                     	movl	%eax, %r11d
    557e: 49 f7 d3                     	notq	%r11
    5581: 4c 89 5d c0                  	movq	%r11, -64(%rbp)
    5585: 48 89 45 c0                  	movq	%rax, -64(%rbp)
    5589: 48 b8 ff ff ff ff ff ff ff 7f	movabsq	$9223372036854775807, %rax ## imm = 0x7FFFFFFFFFFFFFFF
    5593: 48 23 45 c0                  	andq	-64(%rbp), %rax
    5597: 48 c7 45 b8 01 00 00 00      	movq	$1, -72(%rbp)
    559f: 80 7d f6 00                  	cmpb	$0, -10(%rbp)
    55a3: 0f 95 c1                     	setne	%cl
    55a6: 80 f1 ff                     	xorb	$-1, %cl
    55a9: 80 f1 ff                     	xorb	$-1, %cl
    55ac: 80 e1 01                     	andb	$1, %cl
    55af: 0f b6 c9                     	movzbl	%cl, %ecx
    55b2: 48 63 c9                     	movslq	%ecx, %rcx
    55b5: 48 33 4d b8                  	xorq	-72(%rbp), %rcx
    55b9: 48 2b 4d b8                  	subq	-72(%rbp), %rcx
    55bd: 4c 8b 5d b0                  	movq	-80(%rbp), %r11
    55c1: 41 83 e3 00                  	andl	$0, %r11d
    55c5: 41 89 cb                     	movl	%ecx, %r11d
    55c8: 49 f7 d3                     	notq	%r11
    55cb: 4c 89 5d b0                  	movq	%r11, -80(%rbp)
    55cf: 48 89 4d b0                  	movq	%rcx, -80(%rbp)
    55d3: 48 b9 00 00 00 00 00 00 00 80	movabsq	$-9223372036854775808, %rcx ## imm = 0x8000000000000000
    55dd: 48 23 4d b0                  	andq	-80(%rbp), %rcx
    55e1: 48 09 c8                     	orq	%rcx, %rax
    55e4: 48 c7 45 a8 01 00 00 00      	movq	$1, -88(%rbp)
    55ec: 80 7d f4 00                  	cmpb	$0, -12(%rbp)
    55f0: 0f 95 c1                     	setne	%cl
    55f3: 80 f1 ff                     	xorb	$-1, %cl
    55f6: 80 f1 ff                     	xorb	$-1, %cl
    55f9: 80 f1 ff                     	xorb	$-1, %cl
    55fc: 80 e1 01                     	andb	$1, %cl
    55ff: 0f b6 c9                     	movzbl	%cl, %ecx
    5602: 48 63 c9                     	movslq	%ecx, %rcx
    5605: 48 33 4d a8                  	xorq	-88(%rbp), %rcx
    5609: 48 2b 4d a8                  	subq	-88(%rbp), %rcx
    560d: 4c 8b 5d a0                  	movq	-96(%rbp), %r11
    5611: 41 83 e3 00                  	andl	$0, %r11d
    5615: 41 89 cb                     	movl	%ecx, %r11d
    5618: 49 f7 d3                     	notq	%r11
    561b: 4c 89 5d a0                  	movq	%r11, -96(%rbp)
    561f: 48 89 4d a0                  	movq	%rcx, -96(%rbp)
    5623: 48 8b 4d a0                  	movq	-96(%rbp), %rcx
    5627: 48 23 4d e8                  	andq	-24(%rbp), %rcx
    562b: 48 09 c8                     	orq	%rcx, %rax
    562e: 4c 8b 5d d0                  	movq	-48(%rbp), %r11
    5632: 41 83 e3 00                  	andl	$0, %r11d
    5636: 41 89 c3                     	movl	%eax, %r11d
    5639: 49 f7 d3                     	notq	%r11
    563c: 4c 89 5d d0                  	movq	%r11, -48(%rbp)
    5640: 48 89 45 d0                  	movq	%rax, -48(%rbp)
    5644: 48 8b 45 d0                  	movq	-48(%rbp), %rax
    5648: 5d                           	popq	%rbp
    5649: c3                           	retq
    564a: 66 0f 1f 44 00 00            	nopw	(%rax,%rax)

0000000000005650 <_fix_ceil64>:
    5650: 55                           	pushq	%rbp
    5651: 48 89 e5                     	movq	%rsp, %rbp
    5654: 4c 8b 5d f8                  	movq	-8(%rbp), %r11
    5658: 41 83 e3 00                  	andl	$0, %r11d
    565c: 41 89 fb                     	movl	%edi, %r11d
    565f: 49 f7 d3                     	notq	%r11
    5662: 4c 89 5d f8                  	movq	%r11, -8(%rbp)
    5666: 48 89 7d f8                  	movq	%rdi, -8(%rbp)
    566a: 48 8b 45 f8                  	movq	-8(%rbp), %rax
    566e: 48 83 e0 03                  	andq	$3, %rax
    5672: 48 83 f8 02                  	cmpq	$2, %rax
    5676: 0f 94 c0                     	sete	%al
    5679: 24 01                        	andb	$1, %al
    567b: 0f b6 c0                     	movzbl	%al, %eax
    567e: 44 8a 5d f7                  	movb	-9(%rbp), %r11b
    5682: 41 82                        	<unknown>
    5684: e3 f0                        	jrcxz	0x5676 <_fix_ceil64+0x26>
    5686: 41 88 c3                     	movb	%al, %r11b
    5689: 49 f7 d3                     	notq	%r11
    568c: 44 88 5d f7                  	movb	%r11b, -9(%rbp)
    5690: 88 45 f7                     	movb	%al, -9(%rbp)
    5693: 48 8b 45 f8                  	movq	-8(%rbp), %rax
    5697: 48 83 e0 03                  	andq	$3, %rax
    569b: 48 83 f8 03                  	cmpq	$3, %rax
    569f: 0f 94 c0                     	sete	%al
    56a2: 24 01                        	andb	$1, %al
    56a4: 0f b6 c0                     	movzbl	%al, %eax
    56a7: 44 8a 5d f6                  	movb	-10(%rbp), %r11b
    56ab: 41 82                        	<unknown>
    56ad: e3 f0                        	jrcxz	0x569f <_fix_ceil64+0x4f>
    56af: 41 88 c3                     	movb	%al, %r11b
    56b2: 49 f7 d3                     	notq	%r11
    56b5: 44 88 5d f6                  	movb	%r11b, -10(%rbp)
    56b9: 88 45 f6                     	movb	%al, -10(%rbp)
    56bc: 48 8b 45 f8                  	movq	-8(%rbp), %rax
    56c0: 48 83 e0 03                  	andq	$3, %rax
    56c4: 48 83 f8 01                  	cmpq	$1, %rax
    56c8: 0f 94 c0                     	sete	%al
    56cb: 24 01                        	andb	$1, %al
    56cd: 0f b6 c0                     	movzbl	%al, %eax
    56d0: 44 8a 5d f5                  	movb	-11(%rbp), %r11b
    56d4: 41 82                        	<unknown>
    56d6: e3 f0                        	jrcxz	0x56c8 <_fix_ceil64+0x78>
    56d8: 41 88 c3                     	movb	%al, %r11b
    56db: 49 f7 d3                     	notq	%r11
    56de: 44 88 5d f5                  	movb	%r11b, -11(%rbp)
    56e2: 88 45 f5                     	movb	%al, -11(%rbp)
    56e5: 0f b6 45 f7                  	movzbl	-9(%rbp), %eax
    56e9: 0f b6 4d f6                  	movzbl	-10(%rbp), %ecx
    56ed: 09 c8                        	orl	%ecx, %eax
    56ef: 0f b6 4d f5                  	movzbl	-11(%rbp), %ecx
    56f3: 09 c8                        	orl	%ecx, %eax
    56f5: 44 8a 5d f4                  	movb	-12(%rbp), %r11b
    56f9: 41 82                        	<unknown>
    56fb: e3 f0                        	jrcxz	0x56ed <_fix_ceil64+0x9d>
    56fd: 41 88 c3                     	movb	%al, %r11b
    5700: 49 f7 d3                     	notq	%r11
    5703: 44 88 5d f4                  	movb	%r11b, -12(%rbp)
    5707: 88 45 f4                     	movb	%al, -12(%rbp)
    570a: 48 c7 45 e0 01 00 00 00      	movq	$1, -32(%rbp)
    5712: 48 8b 45 f8                  	movq	-8(%rbp), %rax
    5716: 48 c1 e8 3f                  	shrq	$63, %rax
    571a: 48 33 45 e0                  	xorq	-32(%rbp), %rax
    571e: 48 2b 45 e0                  	subq	-32(%rbp), %rax
    5722: 4c 8b 5d d8                  	movq	-40(%rbp), %r11
    5726: 41 83 e3 00                  	andl	$0, %r11d
    572a: 41 89 c3                     	movl	%eax, %r11d
    572d: 49 f7 d3                     	notq	%r11
    5730: 4c 89 5d d8                  	movq	%r11, -40(%rbp)
    5734: 48 89 45 d8                  	movq	%rax, -40(%rbp)
    5738: 48 8b 45 d8                  	movq	-40(%rbp), %rax
    573c: 48 b9 fc ff ff ff ff ff ff 7f	movabsq	$9223372036854775804, %rcx ## imm = 0x7FFFFFFFFFFFFFFC
    5746: 48 23 4d f8                  	andq	-8(%rbp), %rcx
    574a: 48 83 f9 00                  	cmpq	$0, %rcx
    574e: 0f 95 c1                     	setne	%cl
    5751: 80 f1 ff                     	xorb	$-1, %cl
    5754: 80 f1 ff                     	xorb	$-1, %cl
    5757: 80 e1 01                     	andb	$1, %cl
    575a: 0f b6 c9                     	movzbl	%cl, %ecx
    575d: 48 63 c9                     	movslq	%ecx, %rcx
    5760: 48 01 c8                     	addq	%rcx, %rax
    5763: 4c 8b 5d e8                  	movq	-24(%rbp), %r11
    5767: 41 83 e3 00                  	andl	$0, %r11d
    576b: 41 89 c3                     	movl	%eax, %r11d
    576e: 49 f7 d3                     	notq	%r11
    5771: 4c 89 5d e8                  	movq	%r11, -24(%rbp)
    5775: 48 89 45 e8                  	movq	%rax, -24(%rbp)
    5779: 48 c7 45 c8 01 00 00 00      	movq	$1, -56(%rbp)
    5781: 80 7d f7 00                  	cmpb	$0, -9(%rbp)
    5785: 0f 95 c0                     	setne	%al
    5788: 34 ff                        	xorb	$-1, %al
    578a: 34 ff                        	xorb	$-1, %al
    578c: 24 01                        	andb	$1, %al
    578e: 0f b6 c0                     	movzbl	%al, %eax
    5791: 48 98                        	cltq
    5793: 48 33 45 c8                  	xorq	-56(%rbp), %rax
    5797: 48 2b 45 c8                  	subq	-56(%rbp), %rax
    579b: 4c 8b 5d c0                  	movq	-64(%rbp), %r11
    579f: 41 83 e3 00                  	andl	$0, %r11d
    57a3: 41 89 c3                     	movl	%eax, %r11d
    57a6: 49 f7 d3                     	notq	%r11
    57a9: 4c 89 5d c0                  	movq	%r11, -64(%rbp)
    57ad: 48 89 45 c0                  	movq	%rax, -64(%rbp)
    57b1: 48 b8 ff ff ff ff ff ff ff 7f	movabsq	$9223372036854775807, %rax ## imm = 0x7FFFFFFFFFFFFFFF
    57bb: 48 23 45 c0                  	andq	-64(%rbp), %rax
    57bf: 48 c7 45 b8 01 00 00 00      	movq	$1, -72(%rbp)
    57c7: 80 7d f6 00                  	cmpb	$0, -10(%rbp)
    57cb: 0f 95 c1                     	setne	%cl
    57ce: 80 f1 ff                     	xorb	$-1, %cl
    57d1: 80 f1 ff                     	xorb	$-1, %cl
    57d4: 80 e1 01                     	andb	$1, %cl
    57d7: 0f b6 c9                     	movzbl	%cl, %ecx
    57da: 48 63 c9                     	movslq	%ecx, %rcx
    57dd: 48 33 4d b8                  	xorq	-72(%rbp), %rcx
    57e1: 48 2b 4d b8                  	subq	-72(%rbp), %rcx
    57e5: 4c 8b 5d b0                  	movq	-80(%rbp), %r11
    57e9: 41 83 e3 00                  	andl	$0, %r11d
    57ed: 41 89 cb                     	movl	%ecx, %r11d
    57f0: 49 f7 d3                     	notq	%r11
    57f3: 4c 89 5d b0                  	movq	%r11, -80(%rbp)
    57f7: 48 89 4d b0                  	movq	%rcx, -80(%rbp)
    57fb: 48 b9 00 00 00 00 00 00 00 80	movabsq	$-9223372036854775808, %rcx ## imm = 0x8000000000000000
    5805: 48 23 4d b0                  	andq	-80(%rbp), %rcx
    5809: 48 09 c8                     	orq	%rcx, %rax
    580c: 48 c7 45 a8 01 00 00 00      	movq	$1, -88(%rbp)
    5814: 80 7d f4 00                  	cmpb	$0, -12(%rbp)
    5818: 0f 95 c1                     	setne	%cl
    581b: 80 f1 ff                     	xorb	$-1, %cl
    581e: 80 f1 ff                     	xorb	$-1, %cl
    5821: 80 f1 ff                     	xorb	$-1, %cl
    5824: 80 e1 01                     	andb	$1, %cl
    5827: 0f b6 c9                     	movzbl	%cl, %ecx
    582a: 48 63 c9                     	movslq	%ecx, %rcx
    582d: 48 33 4d a8                  	xorq	-88(%rbp), %rcx
    5831: 48 2b 4d a8                  	subq	-88(%rbp), %rcx
    5835: 4c 8b 5d a0                  	movq	-96(%rbp), %r11
    5839: 41 83 e3 00                  	andl	$0, %r11d
    583d: 41 89 cb                     	movl	%ecx, %r11d
    5840: 49 f7 d3                     	notq	%r11
    5843: 4c 89 5d a0                  	movq	%r11, -96(%rbp)
    5847: 48 89 4d a0                  	movq	%rcx, -96(%rbp)
    584b: 48 8b 4d a0                  	movq	-96(%rbp), %rcx
    584f: 48 23 4d e8                  	andq	-24(%rbp), %rcx
    5853: 48 09 c8                     	orq	%rcx, %rax
    5856: 4c 8b 5d d0                  	movq	-48(%rbp), %r11
    585a: 41 83 e3 00                  	andl	$0, %r11d
    585e: 41 89 c3                     	movl	%eax, %r11d
    5861: 49 f7 d3                     	notq	%r11
    5864: 4c 89 5d d0                  	movq	%r11, -48(%rbp)
    5868: 48 89 45 d0                  	movq	%rax, -48(%rbp)
    586c: 48 8b 45 d0                  	movq	-48(%rbp), %rax
    5870: 5d                           	popq	%rbp
    5871: c3                           	retq
    5872: 66 2e 0f 1f 84 00 00 00 00 00	nopw	%cs:(%rax,%rax)
    587c: 0f 1f 40 00                  	nopl	(%rax)

0000000000005880 <_fix_floor64>:
    5880: 55                           	pushq	%rbp
    5881: 48 89 e5                     	movq	%rsp, %rbp
    5884: 4c 8b 5d f8                  	movq	-8(%rbp), %r11
    5888: 41 83 e3 00                  	andl	$0, %r11d
    588c: 41 89 fb                     	movl	%edi, %r11d
    588f: 49 f7 d3                     	notq	%r11
    5892: 4c 89 5d f8                  	movq	%r11, -8(%rbp)
    5896: 48 89 7d f8                  	movq	%rdi, -8(%rbp)
    589a: 48 8b 45 f8                  	movq	-8(%rbp), %rax
    589e: 48 83 e0 03                  	andq	$3, %rax
    58a2: 48 83 f8 02                  	cmpq	$2, %rax
    58a6: 0f 94 c0                     	sete	%al
    58a9: 24 01                        	andb	$1, %al
    58ab: 0f b6 c0                     	movzbl	%al, %eax
    58ae: 44 8a 5d f7                  	movb	-9(%rbp), %r11b
    58b2: 41 82                        	<unknown>
    58b4: e3 f0                        	jrcxz	0x58a6 <_fix_floor64+0x26>
    58b6: 41 88 c3                     	movb	%al, %r11b
    58b9: 49 f7 d3                     	notq	%r11
    58bc: 44 88 5d f7                  	movb	%r11b, -9(%rbp)
    58c0: 88 45 f7                     	movb	%al, -9(%rbp)
    58c3: 48 8b 45 f8                  	movq	-8(%rbp), %rax
    58c7: 48 83 e0 03                  	andq	$3, %rax
    58cb: 48 83 f8 03                  	cmpq	$3, %rax
    58cf: 0f 94 c0                     	sete	%al
    58d2: 24 01                        	andb	$1, %al
    58d4: 0f b6 c0                     	movzbl	%al, %eax
    58d7: 44 8a 5d f6                  	movb	-10(%rbp), %r11b
    58db: 41 82                        	<unknown>
    58dd: e3 f0                        	jrcxz	0x58cf <_fix_floor64+0x4f>
    58df: 41 88 c3                     	movb	%al, %r11b
    58e2: 49 f7 d3                     	notq	%r11
    58e5: 44 88 5d f6                  	movb	%r11b, -10(%rbp)
    58e9: 88 45 f6                     	movb	%al, -10(%rbp)
    58ec: 48 8b 45 f8                  	movq	-8(%rbp), %rax
    58f0: 48 83 e0 03                  	andq	$3, %rax
    58f4: 48 83 f8 01                  	cmpq	$1, %rax
    58f8: 0f 94 c0                     	sete	%al
    58fb: 24 01                        	andb	$1, %al
    58fd: 0f b6 c0                     	movzbl	%al, %eax
    5900: 44 8a 5d f5                  	movb	-11(%rbp), %r11b
    5904: 41 82                        	<unknown>
    5906: e3 f0                        	jrcxz	0x58f8 <_fix_floor64+0x78>
    5908: 41 88 c3                     	movb	%al, %r11b
    590b: 49 f7 d3                     	notq	%r11
    590e: 44 88 5d f5                  	movb	%r11b, -11(%rbp)
    5912: 88 45 f5                     	movb	%al, -11(%rbp)
    5915: 0f b6 45 f7                  	movzbl	-9(%rbp), %eax
    5919: 0f b6 4d f6                  	movzbl	-10(%rbp), %ecx
    591d: 09 c8                        	orl	%ecx, %eax
    591f: 0f b6 4d f5                  	movzbl	-11(%rbp), %ecx
    5923: 09 c8                        	orl	%ecx, %eax
    5925: 44 8a 5d f4                  	movb	-12(%rbp), %r11b
    5929: 41 82                        	<unknown>
    592b: e3 f0                        	jrcxz	0x591d <_fix_floor64+0x9d>
    592d: 41 88 c3                     	movb	%al, %r11b
    5930: 49 f7 d3                     	notq	%r11
    5933: 44 88 5d f4                  	movb	%r11b, -12(%rbp)
    5937: 88 45 f4                     	movb	%al, -12(%rbp)
    593a: 48 c7 45 e0 01 00 00 00      	movq	$1, -32(%rbp)
    5942: 48 8b 45 f8                  	movq	-8(%rbp), %rax
    5946: 48 c1 e8 3f                  	shrq	$63, %rax
    594a: 48 33 45 e0                  	xorq	-32(%rbp), %rax
    594e: 48 2b 45 e0                  	subq	-32(%rbp), %rax
    5952: 4c 8b 5d d8                  	movq	-40(%rbp), %r11
    5956: 41 83 e3 00                  	andl	$0, %r11d
    595a: 41 89 c3                     	movl	%eax, %r11d
    595d: 49 f7 d3                     	notq	%r11
    5960: 4c 89 5d d8                  	movq	%r11, -40(%rbp)
    5964: 48 89 45 d8                  	movq	%rax, -40(%rbp)
    5968: 48 8b 45 d8                  	movq	-40(%rbp), %rax
    596c: 4c 8b 5d e8                  	movq	-24(%rbp), %r11
    5970: 41 83 e3 00                  	andl	$0, %r11d
    5974: 41 89 c3                     	movl	%eax, %r11d
    5977: 49 f7 d3                     	notq	%r11
    597a: 4c 89 5d e8                  	movq	%r11, -24(%rbp)
    597e: 48 89 45 e8                  	movq	%rax, -24(%rbp)
    5982: 48 c7 45 c8 01 00 00 00      	movq	$1, -56(%rbp)
    598a: 80 7d f7 00                  	cmpb	$0, -9(%rbp)
    598e: 0f 95 c0                     	setne	%al
    5991: 34 ff                        	xorb	$-1, %al
    5993: 34 ff                        	xorb	$-1, %al
    5995: 24 01                        	andb	$1, %al
    5997: 0f b6 c0                     	movzbl	%al, %eax
    599a: 48 98                        	cltq
    599c: 48 33 45 c8                  	xorq	-56(%rbp), %rax
    59a0: 48 2b 45 c8                  	subq	-56(%rbp), %rax
    59a4: 4c 8b 5d c0                  	movq	-64(%rbp), %r11
    59a8: 41 83 e3 00                  	andl	$0, %r11d
    59ac: 41 89 c3                     	movl	%eax, %r11d
    59af: 49 f7 d3                     	notq	%r11
    59b2: 4c 89 5d c0                  	movq	%r11, -64(%rbp)
    59b6: 48 89 45 c0                  	movq	%rax, -64(%rbp)
    59ba: 48 b8 ff ff ff ff ff ff ff 7f	movabsq	$9223372036854775807, %rax ## imm = 0x7FFFFFFFFFFFFFFF
    59c4: 48 23 45 c0                  	andq	-64(%rbp), %rax
    59c8: 48 c7 45 b8 01 00 00 00      	movq	$1, -72(%rbp)
    59d0: 80 7d f6 00                  	cmpb	$0, -10(%rbp)
    59d4: 0f 95 c1                     	setne	%cl
    59d7: 80 f1 ff                     	xorb	$-1, %cl
    59da: 80 f1 ff                     	xorb	$-1, %cl
    59dd: 80 e1 01                     	andb	$1, %cl
    59e0: 0f b6 c9                     	movzbl	%cl, %ecx
    59e3: 48 63 c9                     	movslq	%ecx, %rcx
    59e6: 48 33 4d b8                  	xorq	-72(%rbp), %rcx
    59ea: 48 2b 4d b8                  	subq	-72(%rbp), %rcx
    59ee: 4c 8b 5d b0                  	movq	-80(%rbp), %r11
    59f2: 41 83 e3 00                  	andl	$0, %r11d
    59f6: 41 89 cb                     	movl	%ecx, %r11d
    59f9: 49 f7 d3                     	notq	%r11
    59fc: 4c 89 5d b0                  	movq	%r11, -80(%rbp)
    5a00: 48 89 4d b0                  	movq	%rcx, -80(%rbp)
    5a04: 48 b9 00 00 00 00 00 00 00 80	movabsq	$-9223372036854775808, %rcx ## imm = 0x8000000000000000
    5a0e: 48 23 4d b0                  	andq	-80(%rbp), %rcx
    5a12: 48 09 c8                     	orq	%rcx, %rax
    5a15: 48 c7 45 a8 01 00 00 00      	movq	$1, -88(%rbp)
    5a1d: 80 7d f4 00                  	cmpb	$0, -12(%rbp)
    5a21: 0f 95 c1                     	setne	%cl
    5a24: 80 f1 ff                     	xorb	$-1, %cl
    5a27: 80 f1 ff                     	xorb	$-1, %cl
    5a2a: 80 f1 ff                     	xorb	$-1, %cl
    5a2d: 80 e1 01                     	andb	$1, %cl
    5a30: 0f b6 c9                     	movzbl	%cl, %ecx
    5a33: 48 63 c9                     	movslq	%ecx, %rcx
    5a36: 48 33 4d a8                  	xorq	-88(%rbp), %rcx
    5a3a: 48 2b 4d a8                  	subq	-88(%rbp), %rcx
    5a3e: 4c 8b 5d a0                  	movq	-96(%rbp), %r11
    5a42: 41 83 e3 00                  	andl	$0, %r11d
    5a46: 41 89 cb                     	movl	%ecx, %r11d
    5a49: 49 f7 d3                     	notq	%r11
    5a4c: 4c 89 5d a0                  	movq	%r11, -96(%rbp)
    5a50: 48 89 4d a0                  	movq	%rcx, -96(%rbp)
    5a54: 48 8b 4d a0                  	movq	-96(%rbp), %rcx
    5a58: 48 23 4d e8                  	andq	-24(%rbp), %rcx
    5a5c: 48 09 c8                     	orq	%rcx, %rax
    5a5f: 4c 8b 5d d0                  	movq	-48(%rbp), %r11
    5a63: 41 83 e3 00                  	andl	$0, %r11d
    5a67: 41 89 c3                     	movl	%eax, %r11d
    5a6a: 49 f7 d3                     	notq	%r11
    5a6d: 4c 89 5d d0                  	movq	%r11, -48(%rbp)
    5a71: 48 89 45 d0                  	movq	%rax, -48(%rbp)
    5a75: 48 8b 45 d0                  	movq	-48(%rbp), %rax
    5a79: 5d                           	popq	%rbp
    5a7a: c3                           	retq
